
========================================================================

** ELF Header Information

    File Name: .\obj\Smpl_ADC_Joystick.axf

    Machine class: ELFCLASS32 (32-bit)
    Data encoding: ELFDATA2LSB (Little endian)
    Header version: EV_CURRENT (Current version)
    Operating System ABI: none
    ABI Version: 0
    File Type: ET_EXEC (Executable) (2)
    Machine: EM_ARM (ARM)

    Image Entry point: 0x00000181
    Flags: EF_ARM_HASENTRY (0x05000002)

    ARM ELF revision: 5 (ABI version 2)

    Built with
    ARM C/C++ Compiler, 5.03 [Build 76]
    ARM Assembler, 5.03 [Build 76]
    ARM Linker, 5.03 [Build 76] 

    Header size: 52 bytes (0x34)
    Program header entry size: 32 bytes (0x20)
    Section header entry size: 40 bytes (0x28)

    Program header entries: 1
    Section header entries: 16

    Program header offset: 230440 (0x00038428)
    Section header offset: 230472 (0x00038448)

    Section header string table index: 15

========================================================================

** Program header #0 (PT_LOAD) [PF_X + PF_W + PF_R + PF_ARM_ENTRY]
    Size : 15584 bytes (14432 bytes in file)
    Virtual address: 0x00000000 (Alignment 8)


========================================================================

** Section #1 'ER_RO' (SHT_PROGBITS) [SHF_ALLOC + SHF_EXECINSTR]
    Size   : 14320 bytes (alignment 4)
    Address: 0x00000000

    $d.realdata
    RESET
    __Vectors
        0x00000000:    200004f0    ...     DCD    536872176
        0x00000004:    00000181    ....    DCD    385
        0x00000008:    000001a1    ....    DCD    417
        0x0000000c:    000001a3    ....    DCD    419
        0x00000010:    00000000    ....    DCD    0
        0x00000014:    00000000    ....    DCD    0
        0x00000018:    00000000    ....    DCD    0
        0x0000001c:    00000000    ....    DCD    0
        0x00000020:    00000000    ....    DCD    0
        0x00000024:    00000000    ....    DCD    0
        0x00000028:    00000000    ....    DCD    0
        0x0000002c:    000001a5    ....    DCD    421
        0x00000030:    00000000    ....    DCD    0
        0x00000034:    00000000    ....    DCD    0
        0x00000038:    000001a7    ....    DCD    423
        0x0000003c:    000001a9    ....    DCD    425
        0x00000040:    00001335    5...    DCD    4917
        0x00000044:    000001ab    ....    DCD    427
        0x00000048:    00002449    I$..    DCD    9289
        0x0000004c:    0000246d    m$..    DCD    9325
        0x00000050:    00002491    .$..    DCD    9361
        0x00000054:    000024d5    .$..    DCD    9429
        0x00000058:    000001ab    ....    DCD    427
        0x0000005c:    000001ab    ....    DCD    427
        0x00000060:    00002b9d    .+..    DCD    11165
        0x00000064:    000001ab    ....    DCD    427
        0x00000068:    000001ab    ....    DCD    427
        0x0000006c:    000001ab    ....    DCD    427
        0x00000070:    00002bc1    .+..    DCD    11201
        0x00000074:    00002bfd    .+..    DCD    11261
        0x00000078:    000001ab    ....    DCD    427
        0x0000007c:    000001ab    ....    DCD    427
        0x00000080:    000001ab    ....    DCD    427
        0x00000084:    000001ab    ....    DCD    427
        0x00000088:    000001ab    ....    DCD    427
        0x0000008c:    000001ab    ....    DCD    427
        0x00000090:    000001ab    ....    DCD    427
        0x00000094:    000001ab    ....    DCD    427
        0x00000098:    000001ab    ....    DCD    427
        0x0000009c:    000001ab    ....    DCD    427
        0x000000a0:    000001ab    ....    DCD    427
        0x000000a4:    000001ab    ....    DCD    427
        0x000000a8:    000001ab    ....    DCD    427
        0x000000ac:    000001ab    ....    DCD    427
        0x000000b0:    00002ad1    .*..    DCD    10961
        0x000000b4:    0000129d    ....    DCD    4765
        0x000000b8:    000001ab    ....    DCD    427
        0x000000bc:    000001ab    ....    DCD    427
    $t
    !!!main
    __main
        0x000000c0:    f000f802    ....    BL       __scatterload ; 0xc8
        0x000000c4:    f000f84d    ..M.    BL       __rt_entry ; 0x162
    !!!scatter
    __scatterload
    __scatterload_rt2
    __scatterload_rt2_thumb_only
        0x000000c8:    a00c        ..      ADR      r0,{pc}+0x34 ; 0xfc
        0x000000ca:    c830        0.      LDM      r0!,{r4,r5}
        0x000000cc:    3808        .8      SUBS     r0,r0,#8
        0x000000ce:    1824        $.      ADDS     r4,r4,r0
        0x000000d0:    182d        -.      ADDS     r5,r5,r0
        0x000000d2:    46a2        .F      MOV      r10,r4
        0x000000d4:    1e67        g.      SUBS     r7,r4,#1
        0x000000d6:    46ab        .F      MOV      r11,r5
    __scatterload_null
        0x000000d8:    4654        TF      MOV      r4,r10
        0x000000da:    465d        ]F      MOV      r5,r11
        0x000000dc:    42ac        .B      CMP      r4,r5
        0x000000de:    d101        ..      BNE      0xe4 ; __scatterload_null + 12
        0x000000e0:    f000f83f    ..?.    BL       __rt_entry ; 0x162
        0x000000e4:    467e        ~F      MOV      r6,pc
        0x000000e6:    3e0f        .>      SUBS     r6,r6,#0xf
        0x000000e8:    cc0f        ..      LDM      r4!,{r0-r3}
        0x000000ea:    46b6        .F      MOV      lr,r6
        0x000000ec:    2601        .&      MOVS     r6,#1
        0x000000ee:    4233        3B      TST      r3,r6
        0x000000f0:    d000        ..      BEQ      0xf4 ; __scatterload_null + 28
        0x000000f2:    1afb        ..      SUBS     r3,r7,r3
        0x000000f4:    46a2        .F      MOV      r10,r4
        0x000000f6:    46ab        .F      MOV      r11,r5
        0x000000f8:    4333        3C      ORRS     r3,r3,r6
        0x000000fa:    4718        .G      BX       r3
    $d
        0x000000fc:    000036d4    .6..    DCD    14036
        0x00000100:    000036f4    .6..    DCD    14068
    $t
    !!handler_copy
    __scatterload_copy
        0x00000104:    3a10        .:      SUBS     r2,r2,#0x10
        0x00000106:    d302        ..      BCC      0x10e ; __scatterload_copy + 10
        0x00000108:    c878        x.      LDM      r0!,{r3-r6}
        0x0000010a:    c178        x.      STM      r1!,{r3-r6}
        0x0000010c:    d8fa        ..      BHI      __scatterload_copy ; 0x104
        0x0000010e:    0752        R.      LSLS     r2,r2,#29
        0x00000110:    d301        ..      BCC      0x116 ; __scatterload_copy + 18
        0x00000112:    c830        0.      LDM      r0!,{r4,r5}
        0x00000114:    c130        0.      STM      r1!,{r4,r5}
        0x00000116:    d501        ..      BPL      0x11c ; __scatterload_copy + 24
        0x00000118:    6804        .h      LDR      r4,[r0,#0]
        0x0000011a:    600c        .`      STR      r4,[r1,#0]
        0x0000011c:    4770        pG      BX       lr
        0x0000011e:    0000        ..      MOVS     r0,r0
    !!handler_zi
    __scatterload_zeroinit
        0x00000120:    2300        .#      MOVS     r3,#0
        0x00000122:    2400        .$      MOVS     r4,#0
        0x00000124:    2500        .%      MOVS     r5,#0
        0x00000126:    2600        .&      MOVS     r6,#0
        0x00000128:    3a10        .:      SUBS     r2,r2,#0x10
        0x0000012a:    d301        ..      BCC      0x130 ; __scatterload_zeroinit + 16
        0x0000012c:    c178        x.      STM      r1!,{r3-r6}
        0x0000012e:    d8fb        ..      BHI      0x128 ; __scatterload_zeroinit + 8
        0x00000130:    0752        R.      LSLS     r2,r2,#29
        0x00000132:    d300        ..      BCC      0x136 ; __scatterload_zeroinit + 22
        0x00000134:    c130        0.      STM      r1!,{r4,r5}
        0x00000136:    d500        ..      BPL      0x13a ; __scatterload_zeroinit + 26
        0x00000138:    600b        .`      STR      r3,[r1,#0]
        0x0000013a:    4770        pG      BX       lr
    .ARM.Collect$$_printf_percent$$00000000
    _printf_percent
        0x0000013c:    b510        ..      PUSH     {r4,lr}
    .ARM.Collect$$_printf_percent$$00000009
    _printf_d
        0x0000013e:    2964        d)      CMP      r1,#0x64
        0x00000140:    d102        ..      BNE      _printf_s ; 0x148
        0x00000142:    f000f8b3    ....    BL       _printf_int_dec ; 0x2ac
        0x00000146:    bd10        ..      POP      {r4,pc}
    .ARM.Collect$$_printf_percent$$00000014
    _printf_s
        0x00000148:    2973        s)      CMP      r1,#0x73
        0x0000014a:    d102        ..      BNE      _printf_percent_end ; 0x152
        0x0000014c:    f000ff04    ....    BL       _printf_string ; 0xf58
        0x00000150:    bd10        ..      POP      {r4,pc}
    .ARM.Collect$$_printf_percent$$00000017
    _printf_percent_end
        0x00000152:    2000        .       MOVS     r0,#0
        0x00000154:    bd10        ..      POP      {r4,pc}
    .ARM.Collect$$libinit$$00000000
    __rt_lib_init
        0x00000156:    b51f        ..      PUSH     {r0-r4,lr}
    .ARM.Collect$$libinit$$00000001
    __rt_lib_init_fp_1
        0x00000158:    46c0        .F      MOV      r8,r8
        0x0000015a:    46c0        .F      MOV      r8,r8
    .ARM.Collect$$libinit$$00000008
    .ARM.Collect$$libinit$$0000000A
    .ARM.Collect$$libinit$$0000000C
    .ARM.Collect$$libinit$$0000000F
    .ARM.Collect$$libinit$$00000011
    .ARM.Collect$$libinit$$00000013
    .ARM.Collect$$libinit$$00000015
    .ARM.Collect$$libinit$$00000017
    .ARM.Collect$$libinit$$00000019
    .ARM.Collect$$libinit$$0000001B
    .ARM.Collect$$libinit$$0000001D
    .ARM.Collect$$libinit$$0000001F
    .ARM.Collect$$libinit$$00000021
    .ARM.Collect$$libinit$$00000023
    .ARM.Collect$$libinit$$0000002A
    .ARM.Collect$$libinit$$0000002C
    .ARM.Collect$$libinit$$0000002E
    .ARM.Collect$$libinit$$00000030
    .ARM.Collect$$libinit$$00000031
    __rt_lib_init_alloca_1
    __rt_lib_init_argv_1
    __rt_lib_init_atexit_1
    __rt_lib_init_clock_1
    __rt_lib_init_cpp_1
    __rt_lib_init_exceptions_1
    __rt_lib_init_fp_trap_1
    __rt_lib_init_getenv_1
    __rt_lib_init_heap_1
    __rt_lib_init_lc_collate_1
    __rt_lib_init_lc_ctype_1
    __rt_lib_init_lc_monetary_1
    __rt_lib_init_lc_numeric_1
    __rt_lib_init_lc_time_1
    __rt_lib_init_rand_1
    __rt_lib_init_return
    __rt_lib_init_signal_1
    __rt_lib_init_stdio_1
    __rt_lib_init_user_alloc_1
        0x0000015c:    bd1f        ..      POP      {r0-r4,pc}
    .ARM.Collect$$libshutdown$$00000000
    __rt_lib_shutdown
        0x0000015e:    b510        ..      PUSH     {r4,lr}
    .ARM.Collect$$libshutdown$$00000003
    .ARM.Collect$$libshutdown$$00000006
    .ARM.Collect$$libshutdown$$00000009
    .ARM.Collect$$libshutdown$$0000000B
    .ARM.Collect$$libshutdown$$0000000E
    .ARM.Collect$$libshutdown$$0000000F
    __rt_lib_shutdown_fp_trap_1
    __rt_lib_shutdown_heap_1
    __rt_lib_shutdown_return
    __rt_lib_shutdown_signal_1
    __rt_lib_shutdown_stdio_1
    __rt_lib_shutdown_user_alloc_1
        0x00000160:    bd10        ..      POP      {r4,pc}
    .ARM.Collect$$rtentry$$00000000
    .ARM.Collect$$rtentry$$00000002
    .ARM.Collect$$rtentry$$00000004
    __rt_entry
    __rt_entry_presh_1
    __rt_entry_sh
        0x00000162:    f001f83f    ..?.    BL       __user_setup_stackheap ; 0x11e4
        0x00000166:    4611        .F      MOV      r1,r2
    .ARM.Collect$$rtentry$$00000009
    .ARM.Collect$$rtentry$$0000000A
    __rt_entry_li
    __rt_entry_postsh_1
        0x00000168:    f7fffff5    ....    BL       __rt_lib_init ; 0x156
    .ARM.Collect$$rtentry$$0000000C
    .ARM.Collect$$rtentry$$0000000D
    __rt_entry_main
    __rt_entry_postli_1
        0x0000016c:    f002ff2c    ..,.    BL       main ; 0x2fc8
        0x00000170:    f001f857    ..W.    BL       exit ; 0x1222
    .ARM.Collect$$rtexit$$00000000
    __rt_exit
        0x00000174:    b403        ..      PUSH     {r0,r1}
    .ARM.Collect$$rtexit$$00000002
    .ARM.Collect$$rtexit$$00000003
    __rt_exit_ls
    __rt_exit_prels_1
        0x00000176:    f7fffff2    ....    BL       __rt_lib_shutdown ; 0x15e
    .ARM.Collect$$rtexit$$00000004
    __rt_exit_exit
        0x0000017a:    bc03        ..      POP      {r0,r1}
        0x0000017c:    f001f886    ....    BL       _sys_exit ; 0x128c
    .text
    Reset_Handler
        0x00000180:    480d        .H      LDR      r0,[pc,#52] ; [0x1b8] = 0x50000100
        0x00000182:    490e        .I      LDR      r1,[pc,#56] ; [0x1bc] = 0x59
        0x00000184:    6001        .`      STR      r1,[r0,#0]
        0x00000186:    490e        .I      LDR      r1,[pc,#56] ; [0x1c0] = 0x16
        0x00000188:    6001        .`      STR      r1,[r0,#0]
        0x0000018a:    490e        .I      LDR      r1,[pc,#56] ; [0x1c4] = 0x88
        0x0000018c:    6001        .`      STR      r1,[r0,#0]
        0x0000018e:    4a0e        .J      LDR      r2,[pc,#56] ; [0x1c8] = 0x50000024
        0x00000190:    490e        .I      LDR      r1,[pc,#56] ; [0x1cc] = 0x5aa5
        0x00000192:    6011        .`      STR      r1,[r2,#0]
        0x00000194:    2100        .!      MOVS     r1,#0
        0x00000196:    6001        .`      STR      r1,[r0,#0]
        0x00000198:    480d        .H      LDR      r0,[pc,#52] ; [0x1d0] = 0x2b99
        0x0000019a:    4780        .G      BLX      r0
        0x0000019c:    480d        .H      LDR      r0,[pc,#52] ; [0x1d4] = 0xc1
        0x0000019e:    4700        .G      BX       r0
    NMI_Handler
        0x000001a0:    e7fe        ..      B        NMI_Handler ; 0x1a0
    HardFault_Handler
        0x000001a2:    e7fe        ..      B        HardFault_Handler ; 0x1a2
    SVC_Handler
        0x000001a4:    e7fe        ..      B        SVC_Handler ; 0x1a4
    PendSV_Handler
        0x000001a6:    e7fe        ..      B        PendSV_Handler ; 0x1a6
    SysTick_Handler
        0x000001a8:    e7fe        ..      B        SysTick_Handler ; 0x1a8
    Default_Handler
    ACMP_IRQHandler
    CAN0_IRQHandler
    I2C0_IRQHandler
    I2C1_IRQHandler
    I2S_IRQHandler
    PDMA_IRQHandler
    PS2_IRQHandler
    PWMA_IRQHandler
    PWMB_IRQHandler
    RTC_IRQHandler
    SPI0_IRQHandler
    SPI1_IRQHandler
    SPI2_IRQHandler
    SPI3_IRQHandler
    TMR1_IRQHandler
    TMR2_IRQHandler
    TMR3_IRQHandler
    USBD_IRQHandler
    WDT_IRQHandler
        0x000001aa:    e7fe        ..      B        Default_Handler ; 0x1aa
    __user_initial_stackheap
        0x000001ac:    480a        .H      LDR      r0,[pc,#40] ; [0x1d8] = 0x200000f0
        0x000001ae:    490b        .I      LDR      r1,[pc,#44] ; [0x1dc] = 0x200004f0
        0x000001b0:    4a09        .J      LDR      r2,[pc,#36] ; [0x1d8] = 0x200000f0
        0x000001b2:    4b0b        .K      LDR      r3,[pc,#44] ; [0x1e0] = 0x200000f0
        0x000001b4:    4770        pG      BX       lr
    $d
        0x000001b6:    0000        ..      DCW    0
        0x000001b8:    50000100    ...P    DCD    1342177536
        0x000001bc:    00000059    Y...    DCD    89
        0x000001c0:    00000016    ....    DCD    22
        0x000001c4:    00000088    ....    DCD    136
        0x000001c8:    50000024    $..P    DCD    1342177316
        0x000001cc:    00005aa5    .Z..    DCD    23205
        0x000001d0:    00002b99    .+..    DCD    11161
        0x000001d4:    000000c1    ....    DCD    193
        0x000001d8:    200000f0    ...     DCD    536871152
        0x000001dc:    200004f0    ...     DCD    536872176
        0x000001e0:    200000f0    ...     DCD    536871152
    $t
    .text
    __2sprintf
        0x000001e4:    b40f        ..      PUSH     {r0-r3}
        0x000001e6:    b51c        ..      PUSH     {r2-r4,lr}
        0x000001e8:    4b07        .K      LDR      r3,[pc,#28] ; [0x208] = 0xd39
        0x000001ea:    aa06        ..      ADD      r2,sp,#0x18
        0x000001ec:    447b        {D      ADD      r3,r3,pc
        0x000001ee:    4669        iF      MOV      r1,sp
        0x000001f0:    9000        ..      STR      r0,[sp,#0]
        0x000001f2:    9805        ..      LDR      r0,[sp,#0x14]
        0x000001f4:    f000fe85    ....    BL       _printf_char_common ; 0xf02
        0x000001f8:    2000        .       MOVS     r0,#0
        0x000001fa:    4669        iF      MOV      r1,sp
        0x000001fc:    f000fe94    ....    BL       _sputc ; 0xf28
        0x00000200:    bc1c        ..      POP      {r2-r4}
        0x00000202:    bc08        ..      POP      {r3}
        0x00000204:    b004        ..      ADD      sp,sp,#0x10
        0x00000206:    4718        .G      BX       r3
    $d
        0x00000208:    00000d39    9...    DCD    3385
    $t
    .text
    _printf_pre_padding
        0x0000020c:    b570        p.      PUSH     {r4-r6,lr}
        0x0000020e:    4604        .F      MOV      r4,r0
        0x00000210:    6985        .i      LDR      r5,[r0,#0x18]
        0x00000212:    6800        .h      LDR      r0,[r0,#0]
        0x00000214:    06c1        ..      LSLS     r1,r0,#27
        0x00000216:    d501        ..      BPL      0x21c ; _printf_pre_padding + 16
        0x00000218:    2630        0&      MOVS     r6,#0x30
        0x0000021a:    e000        ..      B        0x21e ; _printf_pre_padding + 18
        0x0000021c:    2620         &      MOVS     r6,#0x20
        0x0000021e:    07c0        ..      LSLS     r0,r0,#31
        0x00000220:    d007        ..      BEQ      0x232 ; _printf_pre_padding + 38
        0x00000222:    bd70        p.      POP      {r4-r6,pc}
        0x00000224:    6862        bh      LDR      r2,[r4,#4]
        0x00000226:    4630        0F      MOV      r0,r6
        0x00000228:    68a1        .h      LDR      r1,[r4,#8]
        0x0000022a:    4790        .G      BLX      r2
        0x0000022c:    6a20         j      LDR      r0,[r4,#0x20]
        0x0000022e:    1c40        @.      ADDS     r0,r0,#1
        0x00000230:    6220         b      STR      r0,[r4,#0x20]
        0x00000232:    1e6d        m.      SUBS     r5,r5,#1
        0x00000234:    d5f6        ..      BPL      0x224 ; _printf_pre_padding + 24
        0x00000236:    bd70        p.      POP      {r4-r6,pc}
    _printf_post_padding
        0x00000238:    b570        p.      PUSH     {r4-r6,lr}
        0x0000023a:    4604        .F      MOV      r4,r0
        0x0000023c:    6985        .i      LDR      r5,[r0,#0x18]
        0x0000023e:    7800        .x      LDRB     r0,[r0,#0]
        0x00000240:    07c0        ..      LSLS     r0,r0,#31
        0x00000242:    d107        ..      BNE      0x254 ; _printf_post_padding + 28
        0x00000244:    bd70        p.      POP      {r4-r6,pc}
        0x00000246:    6862        bh      LDR      r2,[r4,#4]
        0x00000248:    68a1        .h      LDR      r1,[r4,#8]
        0x0000024a:    2020                MOVS     r0,#0x20
        0x0000024c:    4790        .G      BLX      r2
        0x0000024e:    6a20         j      LDR      r0,[r4,#0x20]
        0x00000250:    1c40        @.      ADDS     r0,r0,#1
        0x00000252:    6220         b      STR      r0,[r4,#0x20]
        0x00000254:    1e6d        m.      SUBS     r5,r5,#1
        0x00000256:    d5f6        ..      BPL      0x246 ; _printf_post_padding + 14
        0x00000258:    bd70        p.      POP      {r4-r6,pc}
    .text
    _printf_str
        0x0000025a:    b570        p.      PUSH     {r4-r6,lr}
        0x0000025c:    460c        .F      MOV      r4,r1
        0x0000025e:    4605        .F      MOV      r5,r0
        0x00000260:    2a01        .*      CMP      r2,#1
        0x00000262:    d005        ..      BEQ      0x270 ; _printf_str + 22
        0x00000264:    7828        (x      LDRB     r0,[r5,#0]
        0x00000266:    0680        ..      LSLS     r0,r0,#26
        0x00000268:    d500        ..      BPL      0x26c ; _printf_str + 18
        0x0000026a:    69ea        .i      LDR      r2,[r5,#0x1c]
        0x0000026c:    2300        .#      MOVS     r3,#0
        0x0000026e:    e002        ..      B        0x276 ; _printf_str + 28
        0x00000270:    2301        .#      MOVS     r3,#1
        0x00000272:    e005        ..      B        0x280 ; _printf_str + 38
        0x00000274:    1c5b        [.      ADDS     r3,r3,#1
        0x00000276:    4293        .B      CMP      r3,r2
        0x00000278:    d202        ..      BCS      0x280 ; _printf_str + 38
        0x0000027a:    5ce0        .\      LDRB     r0,[r4,r3]
        0x0000027c:    2800        .(      CMP      r0,#0
        0x0000027e:    d1f9        ..      BNE      0x274 ; _printf_str + 26
        0x00000280:    69a8        .i      LDR      r0,[r5,#0x18]
        0x00000282:    18e6        ..      ADDS     r6,r4,r3
        0x00000284:    1ac0        ..      SUBS     r0,r0,r3
        0x00000286:    61a8        .a      STR      r0,[r5,#0x18]
        0x00000288:    6a28        (j      LDR      r0,[r5,#0x20]
        0x0000028a:    18c0        ..      ADDS     r0,r0,r3
        0x0000028c:    6228        (b      STR      r0,[r5,#0x20]
        0x0000028e:    4628        (F      MOV      r0,r5
        0x00000290:    f7ffffbc    ....    BL       _printf_pre_padding ; 0x20c
        0x00000294:    e004        ..      B        0x2a0 ; _printf_str + 70
        0x00000296:    686a        jh      LDR      r2,[r5,#4]
        0x00000298:    7820         x      LDRB     r0,[r4,#0]
        0x0000029a:    68a9        .h      LDR      r1,[r5,#8]
        0x0000029c:    1c64        d.      ADDS     r4,r4,#1
        0x0000029e:    4790        .G      BLX      r2
        0x000002a0:    42b4        .B      CMP      r4,r6
        0x000002a2:    d3f8        ..      BCC      0x296 ; _printf_str + 60
        0x000002a4:    4628        (F      MOV      r0,r5
        0x000002a6:    f7ffffc7    ....    BL       _printf_post_padding ; 0x238
        0x000002aa:    bd70        p.      POP      {r4-r6,pc}
    .text
    _printf_int_dec
        0x000002ac:    b5f7        ..      PUSH     {r0-r2,r4-r7,lr}
        0x000002ae:    2500        .%      MOVS     r5,#0
        0x000002b0:    2975        u)      CMP      r1,#0x75
        0x000002b2:    6810        .h      LDR      r0,[r2,#0]
        0x000002b4:    9900        ..      LDR      r1,[sp,#0]
        0x000002b6:    a614        ..      ADR      r6,{pc}+0x52 ; 0x308
        0x000002b8:    d011        ..      BEQ      0x2de ; _printf_int_dec + 50
        0x000002ba:    46c0        .F      MOV      r8,r8
        0x000002bc:    46c0        .F      MOV      r8,r8
        0x000002be:    2800        .(      CMP      r0,#0
        0x000002c0:    da02        ..      BGE      0x2c8 ; _printf_int_dec + 28
        0x000002c2:    4240        @B      RSBS     r0,r0,#0
        0x000002c4:    a611        ..      ADR      r6,{pc}+0x48 ; 0x30c
        0x000002c6:    e008        ..      B        0x2da ; _printf_int_dec + 46
        0x000002c8:    9900        ..      LDR      r1,[sp,#0]
        0x000002ca:    6809        .h      LDR      r1,[r1,#0]
        0x000002cc:    078a        ..      LSLS     r2,r1,#30
        0x000002ce:    d501        ..      BPL      0x2d4 ; _printf_int_dec + 40
        0x000002d0:    a60f        ..      ADR      r6,{pc}+0x40 ; 0x310
        0x000002d2:    e002        ..      B        0x2da ; _printf_int_dec + 46
        0x000002d4:    0749        I.      LSLS     r1,r1,#29
        0x000002d6:    d504        ..      BPL      0x2e2 ; _printf_int_dec + 54
        0x000002d8:    a60e        ..      ADR      r6,{pc}+0x3c ; 0x314
        0x000002da:    2501        .%      MOVS     r5,#1
        0x000002dc:    e001        ..      B        0x2e2 ; _printf_int_dec + 54
        0x000002de:    46c0        .F      MOV      r8,r8
        0x000002e0:    46c0        .F      MOV      r8,r8
        0x000002e2:    9f00        ..      LDR      r7,[sp,#0]
        0x000002e4:    2400        .$      MOVS     r4,#0
        0x000002e6:    3724        $7      ADDS     r7,r7,#0x24
        0x000002e8:    e004        ..      B        0x2f4 ; _printf_int_dec + 72
        0x000002ea:    f000fe39    ..9.    BL       __rt_udiv10 ; 0xf60
        0x000002ee:    3130        01      ADDS     r1,r1,#0x30
        0x000002f0:    5539        9U      STRB     r1,[r7,r4]
        0x000002f2:    1c64        d.      ADDS     r4,r4,#1
        0x000002f4:    2800        .(      CMP      r0,#0
        0x000002f6:    d1f8        ..      BNE      0x2ea ; _printf_int_dec + 62
        0x000002f8:    462b        +F      MOV      r3,r5
        0x000002fa:    4632        2F      MOV      r2,r6
        0x000002fc:    4621        !F      MOV      r1,r4
        0x000002fe:    9800        ..      LDR      r0,[sp,#0]
        0x00000300:    f000fda2    ....    BL       _printf_int_common ; 0xe48
        0x00000304:    bdfe        ..      POP      {r1-r7,pc}
    $d
        0x00000306:    0000        ..      DCW    0
        0x00000308:    00000000    ....    DCD    0
        0x0000030c:    0000002d    -...    DCD    45
        0x00000310:    0000002b    +...    DCD    43
        0x00000314:    00000020     ...    DCD    32
    $t
    .text
    __printf
        0x00000318:    b5f3        ..      PUSH     {r0,r1,r4-r7,lr}
        0x0000031a:    4604        .F      MOV      r4,r0
        0x0000031c:    2000        .       MOVS     r0,#0
        0x0000031e:    b081        ..      SUB      sp,sp,#4
        0x00000320:    6220         b      STR      r0,[r4,#0x20]
        0x00000322:    4620         F      MOV      r0,r4
        0x00000324:    68e1        .h      LDR      r1,[r4,#0xc]
        0x00000326:    4788        .G      BLX      r1
        0x00000328:    2800        .(      CMP      r0,#0
        0x0000032a:    d07d        }.      BEQ      0x428 ; __printf + 272
        0x0000032c:    2825        %(      CMP      r0,#0x25
        0x0000032e:    d002        ..      BEQ      0x336 ; __printf + 30
        0x00000330:    6862        bh      LDR      r2,[r4,#4]
        0x00000332:    68a1        .h      LDR      r1,[r4,#8]
        0x00000334:    e083        ..      B        0x43e ; __printf + 294
        0x00000336:    4f45        EO      LDR      r7,[pc,#276] ; [0x44c] = 0x343e
        0x00000338:    2500        .%      MOVS     r5,#0
        0x0000033a:    447f        .D      ADD      r7,r7,pc
        0x0000033c:    4620         F      MOV      r0,r4
        0x0000033e:    68e1        .h      LDR      r1,[r4,#0xc]
        0x00000340:    4788        .G      BLX      r1
        0x00000342:    2820         (      CMP      r0,#0x20
        0x00000344:    4606        .F      MOV      r6,r0
        0x00000346:    db08        ..      BLT      0x35a ; __printf + 66
        0x00000348:    2e31        1.      CMP      r6,#0x31
        0x0000034a:    d206        ..      BCS      0x35a ; __printf + 66
        0x0000034c:    19b8        ..      ADDS     r0,r7,r6
        0x0000034e:    3820         8      SUBS     r0,r0,#0x20
        0x00000350:    7800        .x      LDRB     r0,[r0,#0]
        0x00000352:    2800        .(      CMP      r0,#0
        0x00000354:    d001        ..      BEQ      0x35a ; __printf + 66
        0x00000356:    4305        .C      ORRS     r5,r5,r0
        0x00000358:    e7f0        ..      B        0x33c ; __printf + 36
        0x0000035a:    07a8        ..      LSLS     r0,r5,#30
        0x0000035c:    d501        ..      BPL      0x362 ; __printf + 74
        0x0000035e:    2004        .       MOVS     r0,#4
        0x00000360:    4385        .C      BICS     r5,r5,r0
        0x00000362:    2000        .       MOVS     r0,#0
        0x00000364:    61e0        .a      STR      r0,[r4,#0x1c]
        0x00000366:    4607        .F      MOV      r7,r0
        0x00000368:    61a0        .a      STR      r0,[r4,#0x18]
        0x0000036a:    2e2a        *.      CMP      r6,#0x2a
        0x0000036c:    d00a        ..      BEQ      0x384 ; __printf + 108
        0x0000036e:    4630        0F      MOV      r0,r6
        0x00000370:    f002fc8c    ....    BL       _is_digit ; 0x2c8c
        0x00000374:    2800        .(      CMP      r0,#0
        0x00000376:    d027        '.      BEQ      0x3c8 ; __printf + 176
        0x00000378:    3e30        0>      SUBS     r6,r6,#0x30
        0x0000037a:    00b8        ..      LSLS     r0,r7,#2
        0x0000037c:    1900        ..      ADDS     r0,r0,r4
        0x0000037e:    9000        ..      STR      r0,[sp,#0]
        0x00000380:    6186        .a      STR      r6,[r0,#0x18]
        0x00000382:    e019        ..      B        0x3b8 ; __printf + 160
        0x00000384:    9802        ..      LDR      r0,[sp,#8]
        0x00000386:    00ba        ..      LSLS     r2,r7,#2
        0x00000388:    1912        ..      ADDS     r2,r2,r4
        0x0000038a:    c802        ..      LDM      r0!,{r1}
        0x0000038c:    6191        .a      STR      r1,[r2,#0x18]
        0x0000038e:    9002        ..      STR      r0,[sp,#8]
        0x00000390:    4620         F      MOV      r0,r4
        0x00000392:    68e1        .h      LDR      r1,[r4,#0xc]
        0x00000394:    4788        .G      BLX      r1
        0x00000396:    2f01        ./      CMP      r7,#1
        0x00000398:    4606        .F      MOV      r6,r0
        0x0000039a:    d117        ..      BNE      0x3cc ; __printf + 180
        0x0000039c:    69e0        .i      LDR      r0,[r4,#0x1c]
        0x0000039e:    2800        .(      CMP      r0,#0
        0x000003a0:    da1f        ..      BGE      0x3e2 ; __printf + 202
        0x000003a2:    2020                MOVS     r0,#0x20
        0x000003a4:    4385        .C      BICS     r5,r5,r0
        0x000003a6:    e01c        ..      B        0x3e2 ; __printf + 202
        0x000003a8:    9800        ..      LDR      r0,[sp,#0]
        0x000003aa:    210a        .!      MOVS     r1,#0xa
        0x000003ac:    6980        .i      LDR      r0,[r0,#0x18]
        0x000003ae:    4348        HC      MULS     r0,r1,r0
        0x000003b0:    9900        ..      LDR      r1,[sp,#0]
        0x000003b2:    1980        ..      ADDS     r0,r0,r6
        0x000003b4:    3830        08      SUBS     r0,r0,#0x30
        0x000003b6:    6188        .a      STR      r0,[r1,#0x18]
        0x000003b8:    4620         F      MOV      r0,r4
        0x000003ba:    68e1        .h      LDR      r1,[r4,#0xc]
        0x000003bc:    4788        .G      BLX      r1
        0x000003be:    4606        .F      MOV      r6,r0
        0x000003c0:    f002fc64    ..d.    BL       _is_digit ; 0x2c8c
        0x000003c4:    2800        .(      CMP      r0,#0
        0x000003c6:    d1ef        ..      BNE      0x3a8 ; __printf + 144
        0x000003c8:    2f01        ./      CMP      r7,#1
        0x000003ca:    d00a        ..      BEQ      0x3e2 ; __printf + 202
        0x000003cc:    2e2e        ..      CMP      r6,#0x2e
        0x000003ce:    d108        ..      BNE      0x3e2 ; __printf + 202
        0x000003d0:    4620         F      MOV      r0,r4
        0x000003d2:    68e1        .h      LDR      r1,[r4,#0xc]
        0x000003d4:    4788        .G      BLX      r1
        0x000003d6:    4606        .F      MOV      r6,r0
        0x000003d8:    2020                MOVS     r0,#0x20
        0x000003da:    4305        .C      ORRS     r5,r5,r0
        0x000003dc:    1c7f        ..      ADDS     r7,r7,#1
        0x000003de:    2f02        ./      CMP      r7,#2
        0x000003e0:    dbc3        ..      BLT      0x36a ; __printf + 82
        0x000003e2:    69a0        .i      LDR      r0,[r4,#0x18]
        0x000003e4:    2800        .(      CMP      r0,#0
        0x000003e6:    da03        ..      BGE      0x3f0 ; __printf + 216
        0x000003e8:    4240        @B      RSBS     r0,r0,#0
        0x000003ea:    61a0        .a      STR      r0,[r4,#0x18]
        0x000003ec:    2001        .       MOVS     r0,#1
        0x000003ee:    4305        .C      ORRS     r5,r5,r0
        0x000003f0:    07e8        ..      LSLS     r0,r5,#31
        0x000003f2:    d001        ..      BEQ      0x3f8 ; __printf + 224
        0x000003f4:    2010        .       MOVS     r0,#0x10
        0x000003f6:    4385        .C      BICS     r5,r5,r0
        0x000003f8:    2e00        ..      CMP      r6,#0
        0x000003fa:    d024        $.      BEQ      0x446 ; __printf + 302
        0x000003fc:    4630        0F      MOV      r0,r6
        0x000003fe:    3841        A8      SUBS     r0,r0,#0x41
        0x00000400:    2819        .(      CMP      r0,#0x19
        0x00000402:    d803        ..      BHI      0x40c ; __printf + 244
        0x00000404:    2001        .       MOVS     r0,#1
        0x00000406:    02c0        ..      LSLS     r0,r0,#11
        0x00000408:    4305        .C      ORRS     r5,r5,r0
        0x0000040a:    3620         6      ADDS     r6,r6,#0x20
        0x0000040c:    4620         F      MOV      r0,r4
        0x0000040e:    6025        %`      STR      r5,[r4,#0]
        0x00000410:    4631        1F      MOV      r1,r6
        0x00000412:    9a02        ..      LDR      r2,[sp,#8]
        0x00000414:    4615        .F      MOV      r5,r2
        0x00000416:    f7fffe91    ....    BL       _printf_percent ; 0x13c
        0x0000041a:    2800        .(      CMP      r0,#0
        0x0000041c:    d00c        ..      BEQ      0x438 ; __printf + 288
        0x0000041e:    2801        .(      CMP      r0,#1
        0x00000420:    d007        ..      BEQ      0x432 ; __printf + 282
        0x00000422:    1ded        ..      ADDS     r5,r5,#7
        0x00000424:    08e8        ..      LSRS     r0,r5,#3
        0x00000426:    e000        ..      B        0x42a ; __printf + 274
        0x00000428:    e00d        ..      B        0x446 ; __printf + 302
        0x0000042a:    00c0        ..      LSLS     r0,r0,#3
        0x0000042c:    3008        .0      ADDS     r0,r0,#8
        0x0000042e:    9002        ..      STR      r0,[sp,#8]
        0x00000430:    e777        w.      B        0x322 ; __printf + 10
        0x00000432:    1d2d        -.      ADDS     r5,r5,#4
        0x00000434:    9502        ..      STR      r5,[sp,#8]
        0x00000436:    e774        t.      B        0x322 ; __printf + 10
        0x00000438:    6862        bh      LDR      r2,[r4,#4]
        0x0000043a:    4630        0F      MOV      r0,r6
        0x0000043c:    68a1        .h      LDR      r1,[r4,#8]
        0x0000043e:    4790        .G      BLX      r2
        0x00000440:    6a20         j      LDR      r0,[r4,#0x20]
        0x00000442:    1c40        @.      ADDS     r0,r0,#1
        0x00000444:    e76c        l.      B        0x320 ; __printf + 8
        0x00000446:    6a20         j      LDR      r0,[r4,#0x20]
        0x00000448:    bdfe        ..      POP      {r1-r7,pc}
    $d
        0x0000044a:    0000        ..      DCW    0
        0x0000044c:    0000343e    >4..    DCD    13374
    $t
    .text
    __aeabi_uidiv
    __aeabi_uidivmod
        0x00000450:    2200        ."      MOVS     r2,#0
        0x00000452:    0903        ..      LSRS     r3,r0,#4
        0x00000454:    428b        .B      CMP      r3,r1
        0x00000456:    d32c        ,.      BCC      0x4b2 ; __aeabi_idiv + 78
        0x00000458:    0a03        ..      LSRS     r3,r0,#8
        0x0000045a:    428b        .B      CMP      r3,r1
        0x0000045c:    d311        ..      BCC      0x482 ; __aeabi_idiv + 30
        0x0000045e:    2300        .#      MOVS     r3,#0
        0x00000460:    469c        .F      MOV      r12,r3
        0x00000462:    e04e        N.      B        0x502 ; __aeabi_idiv + 158
    __aeabi_idiv
    __aeabi_idivmod
        0x00000464:    4603        .F      MOV      r3,r0
        0x00000466:    430b        .C      ORRS     r3,r3,r1
        0x00000468:    d43c        <.      BMI      0x4e4 ; __aeabi_idiv + 128
        0x0000046a:    2200        ."      MOVS     r2,#0
        0x0000046c:    0843        C.      LSRS     r3,r0,#1
        0x0000046e:    428b        .B      CMP      r3,r1
        0x00000470:    d331        1.      BCC      0x4d6 ; __aeabi_idiv + 114
        0x00000472:    0903        ..      LSRS     r3,r0,#4
        0x00000474:    428b        .B      CMP      r3,r1
        0x00000476:    d31c        ..      BCC      0x4b2 ; __aeabi_idiv + 78
        0x00000478:    0a03        ..      LSRS     r3,r0,#8
        0x0000047a:    428b        .B      CMP      r3,r1
        0x0000047c:    d301        ..      BCC      0x482 ; __aeabi_idiv + 30
        0x0000047e:    4694        .F      MOV      r12,r2
        0x00000480:    e03f        ?.      B        0x502 ; __aeabi_idiv + 158
        0x00000482:    09c3        ..      LSRS     r3,r0,#7
        0x00000484:    428b        .B      CMP      r3,r1
        0x00000486:    d301        ..      BCC      0x48c ; __aeabi_idiv + 40
        0x00000488:    01cb        ..      LSLS     r3,r1,#7
        0x0000048a:    1ac0        ..      SUBS     r0,r0,r3
        0x0000048c:    4152        RA      ADCS     r2,r2,r2
        0x0000048e:    0983        ..      LSRS     r3,r0,#6
        0x00000490:    428b        .B      CMP      r3,r1
        0x00000492:    d301        ..      BCC      0x498 ; __aeabi_idiv + 52
        0x00000494:    018b        ..      LSLS     r3,r1,#6
        0x00000496:    1ac0        ..      SUBS     r0,r0,r3
        0x00000498:    4152        RA      ADCS     r2,r2,r2
        0x0000049a:    0943        C.      LSRS     r3,r0,#5
        0x0000049c:    428b        .B      CMP      r3,r1
        0x0000049e:    d301        ..      BCC      0x4a4 ; __aeabi_idiv + 64
        0x000004a0:    014b        K.      LSLS     r3,r1,#5
        0x000004a2:    1ac0        ..      SUBS     r0,r0,r3
        0x000004a4:    4152        RA      ADCS     r2,r2,r2
        0x000004a6:    0903        ..      LSRS     r3,r0,#4
        0x000004a8:    428b        .B      CMP      r3,r1
        0x000004aa:    d301        ..      BCC      0x4b0 ; __aeabi_idiv + 76
        0x000004ac:    010b        ..      LSLS     r3,r1,#4
        0x000004ae:    1ac0        ..      SUBS     r0,r0,r3
        0x000004b0:    4152        RA      ADCS     r2,r2,r2
        0x000004b2:    08c3        ..      LSRS     r3,r0,#3
        0x000004b4:    428b        .B      CMP      r3,r1
        0x000004b6:    d301        ..      BCC      0x4bc ; __aeabi_idiv + 88
        0x000004b8:    00cb        ..      LSLS     r3,r1,#3
        0x000004ba:    1ac0        ..      SUBS     r0,r0,r3
        0x000004bc:    4152        RA      ADCS     r2,r2,r2
        0x000004be:    0883        ..      LSRS     r3,r0,#2
        0x000004c0:    428b        .B      CMP      r3,r1
        0x000004c2:    d301        ..      BCC      0x4c8 ; __aeabi_idiv + 100
        0x000004c4:    008b        ..      LSLS     r3,r1,#2
        0x000004c6:    1ac0        ..      SUBS     r0,r0,r3
        0x000004c8:    4152        RA      ADCS     r2,r2,r2
        0x000004ca:    0843        C.      LSRS     r3,r0,#1
        0x000004cc:    428b        .B      CMP      r3,r1
        0x000004ce:    d301        ..      BCC      0x4d4 ; __aeabi_idiv + 112
        0x000004d0:    004b        K.      LSLS     r3,r1,#1
        0x000004d2:    1ac0        ..      SUBS     r0,r0,r3
        0x000004d4:    4152        RA      ADCS     r2,r2,r2
        0x000004d6:    1a41        A.      SUBS     r1,r0,r1
        0x000004d8:    d200        ..      BCS      0x4dc ; __aeabi_idiv + 120
        0x000004da:    4601        .F      MOV      r1,r0
        0x000004dc:    4152        RA      ADCS     r2,r2,r2
        0x000004de:    4610        .F      MOV      r0,r2
        0x000004e0:    4770        pG      BX       lr
        0x000004e2:    e05d        ].      B        0x5a0 ; __aeabi_idiv + 316
        0x000004e4:    0fca        ..      LSRS     r2,r1,#31
        0x000004e6:    d000        ..      BEQ      0x4ea ; __aeabi_idiv + 134
        0x000004e8:    4249        IB      RSBS     r1,r1,#0
        0x000004ea:    1003        ..      ASRS     r3,r0,#32
        0x000004ec:    d300        ..      BCC      0x4f0 ; __aeabi_idiv + 140
        0x000004ee:    4240        @B      RSBS     r0,r0,#0
        0x000004f0:    4053        S@      EORS     r3,r3,r2
        0x000004f2:    2200        ."      MOVS     r2,#0
        0x000004f4:    469c        .F      MOV      r12,r3
        0x000004f6:    0903        ..      LSRS     r3,r0,#4
        0x000004f8:    428b        .B      CMP      r3,r1
        0x000004fa:    d32d        -.      BCC      0x558 ; __aeabi_idiv + 244
        0x000004fc:    0a03        ..      LSRS     r3,r0,#8
        0x000004fe:    428b        .B      CMP      r3,r1
        0x00000500:    d312        ..      BCC      0x528 ; __aeabi_idiv + 196
        0x00000502:    22fc        ."      MOVS     r2,#0xfc
        0x00000504:    0189        ..      LSLS     r1,r1,#6
        0x00000506:    ba12        ..      REV      r2,r2
        0x00000508:    0a03        ..      LSRS     r3,r0,#8
        0x0000050a:    428b        .B      CMP      r3,r1
        0x0000050c:    d30c        ..      BCC      0x528 ; __aeabi_idiv + 196
        0x0000050e:    0189        ..      LSLS     r1,r1,#6
        0x00000510:    1192        ..      ASRS     r2,r2,#6
        0x00000512:    428b        .B      CMP      r3,r1
        0x00000514:    d308        ..      BCC      0x528 ; __aeabi_idiv + 196
        0x00000516:    0189        ..      LSLS     r1,r1,#6
        0x00000518:    1192        ..      ASRS     r2,r2,#6
        0x0000051a:    428b        .B      CMP      r3,r1
        0x0000051c:    d304        ..      BCC      0x528 ; __aeabi_idiv + 196
        0x0000051e:    0189        ..      LSLS     r1,r1,#6
        0x00000520:    d03a        :.      BEQ      0x598 ; __aeabi_idiv + 308
        0x00000522:    1192        ..      ASRS     r2,r2,#6
        0x00000524:    e000        ..      B        0x528 ; __aeabi_idiv + 196
        0x00000526:    0989        ..      LSRS     r1,r1,#6
        0x00000528:    09c3        ..      LSRS     r3,r0,#7
        0x0000052a:    428b        .B      CMP      r3,r1
        0x0000052c:    d301        ..      BCC      0x532 ; __aeabi_idiv + 206
        0x0000052e:    01cb        ..      LSLS     r3,r1,#7
        0x00000530:    1ac0        ..      SUBS     r0,r0,r3
        0x00000532:    4152        RA      ADCS     r2,r2,r2
        0x00000534:    0983        ..      LSRS     r3,r0,#6
        0x00000536:    428b        .B      CMP      r3,r1
        0x00000538:    d301        ..      BCC      0x53e ; __aeabi_idiv + 218
        0x0000053a:    018b        ..      LSLS     r3,r1,#6
        0x0000053c:    1ac0        ..      SUBS     r0,r0,r3
        0x0000053e:    4152        RA      ADCS     r2,r2,r2
        0x00000540:    0943        C.      LSRS     r3,r0,#5
        0x00000542:    428b        .B      CMP      r3,r1
        0x00000544:    d301        ..      BCC      0x54a ; __aeabi_idiv + 230
        0x00000546:    014b        K.      LSLS     r3,r1,#5
        0x00000548:    1ac0        ..      SUBS     r0,r0,r3
        0x0000054a:    4152        RA      ADCS     r2,r2,r2
        0x0000054c:    0903        ..      LSRS     r3,r0,#4
        0x0000054e:    428b        .B      CMP      r3,r1
        0x00000550:    d301        ..      BCC      0x556 ; __aeabi_idiv + 242
        0x00000552:    010b        ..      LSLS     r3,r1,#4
        0x00000554:    1ac0        ..      SUBS     r0,r0,r3
        0x00000556:    4152        RA      ADCS     r2,r2,r2
        0x00000558:    08c3        ..      LSRS     r3,r0,#3
        0x0000055a:    428b        .B      CMP      r3,r1
        0x0000055c:    d301        ..      BCC      0x562 ; __aeabi_idiv + 254
        0x0000055e:    00cb        ..      LSLS     r3,r1,#3
        0x00000560:    1ac0        ..      SUBS     r0,r0,r3
        0x00000562:    4152        RA      ADCS     r2,r2,r2
        0x00000564:    0883        ..      LSRS     r3,r0,#2
        0x00000566:    428b        .B      CMP      r3,r1
        0x00000568:    d301        ..      BCC      0x56e ; __aeabi_idiv + 266
        0x0000056a:    008b        ..      LSLS     r3,r1,#2
        0x0000056c:    1ac0        ..      SUBS     r0,r0,r3
        0x0000056e:    4152        RA      ADCS     r2,r2,r2
        0x00000570:    d2d9        ..      BCS      0x526 ; __aeabi_idiv + 194
        0x00000572:    0843        C.      LSRS     r3,r0,#1
        0x00000574:    428b        .B      CMP      r3,r1
        0x00000576:    d301        ..      BCC      0x57c ; __aeabi_idiv + 280
        0x00000578:    004b        K.      LSLS     r3,r1,#1
        0x0000057a:    1ac0        ..      SUBS     r0,r0,r3
        0x0000057c:    4152        RA      ADCS     r2,r2,r2
        0x0000057e:    1a41        A.      SUBS     r1,r0,r1
        0x00000580:    d200        ..      BCS      0x584 ; __aeabi_idiv + 288
        0x00000582:    4601        .F      MOV      r1,r0
        0x00000584:    4663        cF      MOV      r3,r12
        0x00000586:    4152        RA      ADCS     r2,r2,r2
        0x00000588:    105b        [.      ASRS     r3,r3,#1
        0x0000058a:    4610        .F      MOV      r0,r2
        0x0000058c:    d301        ..      BCC      0x592 ; __aeabi_idiv + 302
        0x0000058e:    4240        @B      RSBS     r0,r0,#0
        0x00000590:    2b00        .+      CMP      r3,#0
        0x00000592:    d500        ..      BPL      0x596 ; __aeabi_idiv + 306
        0x00000594:    4249        IB      RSBS     r1,r1,#0
        0x00000596:    4770        pG      BX       lr
        0x00000598:    4663        cF      MOV      r3,r12
        0x0000059a:    105b        [.      ASRS     r3,r3,#1
        0x0000059c:    d300        ..      BCC      0x5a0 ; __aeabi_idiv + 316
        0x0000059e:    4240        @B      RSBS     r0,r0,#0
        0x000005a0:    b501        ..      PUSH     {r0,lr}
        0x000005a2:    2000        .       MOVS     r0,#0
        0x000005a4:    46c0        .F      MOV      r8,r8
        0x000005a6:    46c0        .F      MOV      r8,r8
        0x000005a8:    bd02        ..      POP      {r1,pc}
    .text
    __use_two_region_memory
        0x000005aa:    4770        pG      BX       lr
    __rt_heap_escrow$2region
        0x000005ac:    4770        pG      BX       lr
    __rt_heap_expand$2region
        0x000005ae:    4770        pG      BX       lr
    .text
    __aeabi_d2f
    _d2f
        0x000005b0:    4602        .F      MOV      r2,r0
        0x000005b2:    0fc8        ..      LSRS     r0,r1,#31
        0x000005b4:    07c0        ..      LSLS     r0,r0,#31
        0x000005b6:    4381        .C      BICS     r1,r1,r0
        0x000005b8:    004b        K.      LSLS     r3,r1,#1
        0x000005ba:    b530        0.      PUSH     {r4,r5,lr}
        0x000005bc:    404b        K@      EORS     r3,r3,r1
        0x000005be:    005b        [.      LSLS     r3,r3,#1
        0x000005c0:    0d9b        ..      LSRS     r3,r3,#22
        0x000005c2:    d020         .      BEQ      0x606 ; __aeabi_d2f + 86
        0x000005c4:    2319        .#      MOVS     r3,#0x19
        0x000005c6:    06db        ..      LSLS     r3,r3,#27
        0x000005c8:    18c9        ..      ADDS     r1,r1,r3
        0x000005ca:    2301        .#      MOVS     r3,#1
        0x000005cc:    051b        ..      LSLS     r3,r3,#20
        0x000005ce:    4299        .B      CMP      r1,r3
        0x000005d0:    db20         .      BLT      0x614 ; __aeabi_d2f + 100
        0x000005d2:    2403        .$      MOVS     r4,#3
        0x000005d4:    07a4        ..      LSLS     r4,r4,#30
        0x000005d6:    2504        .%      MOVS     r5,#4
        0x000005d8:    4613        .F      MOV      r3,r2
        0x000005da:    40ab        .@      LSLS     r3,r3,r5
        0x000005dc:    d30b        ..      BCC      0x5f6 ; __aeabi_d2f + 70
        0x000005de:    2b00        .+      CMP      r3,#0
        0x000005e0:    d104        ..      BNE      0x5ec ; __aeabi_d2f + 60
        0x000005e2:    06eb        ..      LSLS     r3,r5,#27
        0x000005e4:    4013        .@      ANDS     r3,r3,r2
        0x000005e6:    009b        ..      LSLS     r3,r3,#2
        0x000005e8:    191b        ..      ADDS     r3,r3,r4
        0x000005ea:    d404        ..      BMI      0x5f6 ; __aeabi_d2f + 70
        0x000005ec:    2401        .$      MOVS     r4,#1
        0x000005ee:    0764        d.      LSLS     r4,r4,#29
        0x000005f0:    2300        .#      MOVS     r3,#0
        0x000005f2:    1912        ..      ADDS     r2,r2,r4
        0x000005f4:    4159        YA      ADCS     r1,r1,r3
        0x000005f6:    23ff        .#      MOVS     r3,#0xff
        0x000005f8:    051b        ..      LSLS     r3,r3,#20
        0x000005fa:    4299        .B      CMP      r1,r3
        0x000005fc:    d20b        ..      BCS      0x616 ; __aeabi_d2f + 102
        0x000005fe:    00c9        ..      LSLS     r1,r1,#3
        0x00000600:    4301        .C      ORRS     r1,r1,r0
        0x00000602:    0f50        P.      LSRS     r0,r2,#29
        0x00000604:    e009        ..      B        0x61a ; __aeabi_d2f + 106
        0x00000606:    02cb        ..      LSLS     r3,r1,#11
        0x00000608:    d504        ..      BPL      0x614 ; __aeabi_d2f + 100
        0x0000060a:    4301        .C      ORRS     r1,r1,r0
        0x0000060c:    0308        ..      LSLS     r0,r1,#12
        0x0000060e:    4302        .C      ORRS     r2,r2,r0
        0x00000610:    d005        ..      BEQ      0x61e ; __aeabi_d2f + 110
        0x00000612:    4805        .H      LDR      r0,[pc,#20] ; [0x628] = 0x7fc00000
        0x00000614:    bd30        0.      POP      {r4,r5,pc}
        0x00000616:    21ff        .!      MOVS     r1,#0xff
        0x00000618:    05c9        ..      LSLS     r1,r1,#23
        0x0000061a:    4308        .C      ORRS     r0,r0,r1
        0x0000061c:    bd30        0.      POP      {r4,r5,pc}
        0x0000061e:    4608        .F      MOV      r0,r1
        0x00000620:    2107        .!      MOVS     r1,#7
        0x00000622:    0509        ..      LSLS     r1,r1,#20
        0x00000624:    4388        .C      BICS     r0,r0,r1
        0x00000626:    bd30        0.      POP      {r4,r5,pc}
    $d
        0x00000628:    7fc00000    ....    DCD    2143289344
    $t
    .text
    _dadd1
        0x0000062c:    b5f0        ..      PUSH     {r4-r7,lr}
        0x0000062e:    460c        .F      MOV      r4,r1
        0x00000630:    1a87        ..      SUBS     r7,r0,r2
        0x00000632:    419c        .A      SBCS     r4,r4,r3
        0x00000634:    460d        .F      MOV      r5,r1
        0x00000636:    1a86        ..      SUBS     r6,r0,r2
        0x00000638:    419d        .A      SBCS     r5,r5,r3
        0x0000063a:    d203        ..      BCS      0x644 ; _dadd1 + 24
        0x0000063c:    1bc0        ..      SUBS     r0,r0,r7
        0x0000063e:    41a1        .A      SBCS     r1,r1,r4
        0x00000640:    19d2        ..      ADDS     r2,r2,r7
        0x00000642:    4163        cA      ADCS     r3,r3,r4
        0x00000644:    0d0d        ..      LSRS     r5,r1,#20
        0x00000646:    0d1f        ..      LSRS     r7,r3,#20
        0x00000648:    4ec6        .N      LDR      r6,[pc,#792] ; [0x964] = 0x7ff
        0x0000064a:    1bec        ..      SUBS     r4,r5,r7
        0x0000064c:    43ae        .C      BICS     r6,r6,r5
        0x0000064e:    d05b        [.      BEQ      0x708 ; _dadd1 + 220
        0x00000650:    057f        ..      LSLS     r7,r7,#21
        0x00000652:    0d7f        ..      LSRS     r7,r7,#21
        0x00000654:    2600        .&      MOVS     r6,#0
        0x00000656:    2f00        ./      CMP      r7,#0
        0x00000658:    d050        P.      BEQ      0x6fc ; _dadd1 + 208
        0x0000065a:    052d        -.      LSLS     r5,r5,#20
        0x0000065c:    46ac        .F      MOV      r12,r5
        0x0000065e:    43a9        .C      BICS     r1,r1,r5
        0x00000660:    02dd        ..      LSLS     r5,r3,#11
        0x00000662:    2301        .#      MOVS     r3,#1
        0x00000664:    0aed        ..      LSRS     r5,r5,#11
        0x00000666:    051b        ..      LSLS     r3,r3,#20
        0x00000668:    431d        .C      ORRS     r5,r5,r3
        0x0000066a:    2320         #      MOVS     r3,#0x20
        0x0000066c:    1b1b        ..      SUBS     r3,r3,r4
        0x0000066e:    d423        #.      BMI      0x6b8 ; _dadd1 + 140
        0x00000670:    4617        .F      MOV      r7,r2
        0x00000672:    40e7        .@      LSRS     r7,r7,r4
        0x00000674:    1838        8.      ADDS     r0,r7,r0
        0x00000676:    4171        qA      ADCS     r1,r1,r6
        0x00000678:    462f        /F      MOV      r7,r5
        0x0000067a:    40e7        .@      LSRS     r7,r7,r4
        0x0000067c:    19cc        ..      ADDS     r4,r1,r7
        0x0000067e:    409d        .@      LSLS     r5,r5,r3
        0x00000680:    1828        (.      ADDS     r0,r5,r0
        0x00000682:    4631        1F      MOV      r1,r6
        0x00000684:    4161        aA      ADCS     r1,r1,r4
        0x00000686:    0d0c        ..      LSRS     r4,r1,#20
        0x00000688:    d126        &.      BNE      0x6d8 ; _dadd1 + 172
        0x0000068a:    4461        aD      ADD      r1,r1,r12
        0x0000068c:    409a        .@      LSLS     r2,r2,r3
        0x0000068e:    d512        ..      BPL      0x6b6 ; _dadd1 + 138
        0x00000690:    2300        .#      MOVS     r3,#0
        0x00000692:    1c40        @.      ADDS     r0,r0,#1
        0x00000694:    4159        YA      ADCS     r1,r1,r3
        0x00000696:    0052        R.      LSLS     r2,r2,#1
        0x00000698:    d10d        ..      BNE      0x6b6 ; _dadd1 + 138
        0x0000069a:    0840        @.      LSRS     r0,r0,#1
        0x0000069c:    0040        @.      LSLS     r0,r0,#1
        0x0000069e:    4ab2        .J      LDR      r2,[pc,#712] ; [0x968] = 0xffe00000
        0x000006a0:    004b        K.      LSLS     r3,r1,#1
        0x000006a2:    4293        .B      CMP      r3,r2
        0x000006a4:    d307        ..      BCC      0x6b6 ; _dadd1 + 138
        0x000006a6:    2005        .       MOVS     r0,#5
        0x000006a8:    0740        @.      LSLS     r0,r0,#29
        0x000006aa:    1808        ..      ADDS     r0,r1,r0
        0x000006ac:    d501        ..      BPL      0x6b2 ; _dadd1 + 134
        0x000006ae:    1051        Q.      ASRS     r1,r2,#1
        0x000006b0:    e000        ..      B        0x6b4 ; _dadd1 + 136
        0x000006b2:    49ae        .I      LDR      r1,[pc,#696] ; [0x96c] = 0x7ff00000
        0x000006b4:    4630        0F      MOV      r0,r6
        0x000006b6:    bdf0        ..      POP      {r4-r7,pc}
        0x000006b8:    006b        k.      LSLS     r3,r5,#1
        0x000006ba:    2a00        .*      CMP      r2,#0
        0x000006bc:    d000        ..      BEQ      0x6c0 ; _dadd1 + 148
        0x000006be:    2201        ."      MOVS     r2,#1
        0x000006c0:    189a        ..      ADDS     r2,r3,r2
        0x000006c2:    3c20         <      SUBS     r4,r4,#0x20
        0x000006c4:    231f        .#      MOVS     r3,#0x1f
        0x000006c6:    1b1b        ..      SUBS     r3,r3,r4
        0x000006c8:    d501        ..      BPL      0x6ce ; _dadd1 + 162
        0x000006ca:    2300        .#      MOVS     r3,#0
        0x000006cc:    e002        ..      B        0x6d4 ; _dadd1 + 168
        0x000006ce:    40e5        .@      LSRS     r5,r5,r4
        0x000006d0:    1828        (.      ADDS     r0,r5,r0
        0x000006d2:    4171        qA      ADCS     r1,r1,r6
        0x000006d4:    0d0c        ..      LSRS     r4,r1,#20
        0x000006d6:    d0d8        ..      BEQ      0x68a ; _dadd1 + 94
        0x000006d8:    2401        .$      MOVS     r4,#1
        0x000006da:    0524        $.      LSLS     r4,r4,#20
        0x000006dc:    1909        ..      ADDS     r1,r1,r4
        0x000006de:    07c4        ..      LSLS     r4,r0,#31
        0x000006e0:    07cd        ..      LSLS     r5,r1,#31
        0x000006e2:    0840        @.      LSRS     r0,r0,#1
        0x000006e4:    0849        I.      LSRS     r1,r1,#1
        0x000006e6:    0fe4        ..      LSRS     r4,r4,#31
        0x000006e8:    4328        (C      ORRS     r0,r0,r5
        0x000006ea:    4461        aD      ADD      r1,r1,r12
        0x000006ec:    2c00        .,      CMP      r4,#0
        0x000006ee:    d0d6        ..      BEQ      0x69e ; _dadd1 + 114
        0x000006f0:    2400        .$      MOVS     r4,#0
        0x000006f2:    1c40        @.      ADDS     r0,r0,#1
        0x000006f4:    4161        aA      ADCS     r1,r1,r4
        0x000006f6:    409a        .@      LSLS     r2,r2,r3
        0x000006f8:    d1d1        ..      BNE      0x69e ; _dadd1 + 114
        0x000006fa:    e7ce        ..      B        0x69a ; _dadd1 + 110
        0x000006fc:    056a        j.      LSLS     r2,r5,#21
        0x000006fe:    0d52        R.      LSRS     r2,r2,#21
        0x00000700:    d1d9        ..      BNE      0x6b6 ; _dadd1 + 138
        0x00000702:    0fc9        ..      LSRS     r1,r1,#31
        0x00000704:    07c9        ..      LSLS     r1,r1,#31
        0x00000706:    e7d5        ..      B        0x6b4 ; _dadd1 + 136
        0x00000708:    4d97        .M      LDR      r5,[pc,#604] ; [0x968] = 0xffe00000
        0x0000070a:    004e        N.      LSLS     r6,r1,#1
        0x0000070c:    2800        .(      CMP      r0,#0
        0x0000070e:    d001        ..      BEQ      0x714 ; _dadd1 + 232
        0x00000710:    2401        .$      MOVS     r4,#1
        0x00000712:    e000        ..      B        0x716 ; _dadd1 + 234
        0x00000714:    2400        .$      MOVS     r4,#0
        0x00000716:    1934        4.      ADDS     r4,r6,r4
        0x00000718:    005f        _.      LSLS     r7,r3,#1
        0x0000071a:    2a00        .*      CMP      r2,#0
        0x0000071c:    d001        ..      BEQ      0x722 ; _dadd1 + 246
        0x0000071e:    2601        .&      MOVS     r6,#1
        0x00000720:    e000        ..      B        0x724 ; _dadd1 + 248
        0x00000722:    2600        .&      MOVS     r6,#0
        0x00000724:    19be        ..      ADDS     r6,r7,r6
        0x00000726:    4f92        .O      LDR      r7,[pc,#584] ; [0x970] = 0x7ff80000
        0x00000728:    42ac        .B      CMP      r4,r5
        0x0000072a:    d80b        ..      BHI      0x744 ; _dadd1 + 280
        0x0000072c:    42ae        .B      CMP      r6,r5
        0x0000072e:    d809        ..      BHI      0x744 ; _dadd1 + 280
        0x00000730:    42b4        .B      CMP      r4,r6
        0x00000732:    d005        ..      BEQ      0x740 ; _dadd1 + 276
        0x00000734:    00bd        ..      LSLS     r5,r7,#2
        0x00000736:    42ac        .B      CMP      r4,r5
        0x00000738:    d0bd        ..      BEQ      0x6b6 ; _dadd1 + 138
        0x0000073a:    4610        .F      MOV      r0,r2
        0x0000073c:    4619        .F      MOV      r1,r3
        0x0000073e:    bdf0        ..      POP      {r4-r7,pc}
        0x00000740:    4299        .B      CMP      r1,r3
        0x00000742:    d0fc        ..      BEQ      0x73e ; _dadd1 + 274
        0x00000744:    2000        .       MOVS     r0,#0
        0x00000746:    4639        9F      MOV      r1,r7
        0x00000748:    bdf0        ..      POP      {r4-r7,pc}
    _dsub1
        0x0000074a:    b5f0        ..      PUSH     {r4-r7,lr}
        0x0000074c:    b41f        ..      PUSH     {r0-r4}
        0x0000074e:    460c        .F      MOV      r4,r1
        0x00000750:    460f        .F      MOV      r7,r1
        0x00000752:    1a81        ..      SUBS     r1,r0,r2
        0x00000754:    419f        .A      SBCS     r7,r7,r3
        0x00000756:    4625        %F      MOV      r5,r4
        0x00000758:    1a86        ..      SUBS     r6,r0,r2
        0x0000075a:    419d        .A      SBCS     r5,r5,r3
        0x0000075c:    d206        ..      BCS      0x76c ; _dsub1 + 34
        0x0000075e:    2501        .%      MOVS     r5,#1
        0x00000760:    07ed        ..      LSLS     r5,r5,#31
        0x00000762:    406f        o@      EORS     r7,r7,r5
        0x00000764:    1a40        @.      SUBS     r0,r0,r1
        0x00000766:    41bc        .A      SBCS     r4,r4,r7
        0x00000768:    1852        R.      ADDS     r2,r2,r1
        0x0000076a:    417b        {A      ADCS     r3,r3,r7
        0x0000076c:    0d21        !.      LSRS     r1,r4,#20
        0x0000076e:    0d1e        ..      LSRS     r6,r3,#20
        0x00000770:    1b8d        ..      SUBS     r5,r1,r6
        0x00000772:    46ac        .F      MOV      r12,r5
        0x00000774:    4d7b        {M      LDR      r5,[pc,#492] ; [0x964] = 0x7ff
        0x00000776:    438d        .C      BICS     r5,r5,r1
        0x00000778:    d07e        ~.      BEQ      0x878 ; _dsub1 + 302
        0x0000077a:    0575        u.      LSLS     r5,r6,#21
        0x0000077c:    0d6d        m.      LSRS     r5,r5,#21
        0x0000077e:    d07c        |.      BEQ      0x87a ; _dsub1 + 304
        0x00000780:    050d        ..      LSLS     r5,r1,#20
        0x00000782:    46ae        .F      MOV      lr,r5
        0x00000784:    43ac        .C      BICS     r4,r4,r5
        0x00000786:    031b        ..      LSLS     r3,r3,#12
        0x00000788:    0b1b        ..      LSRS     r3,r3,#12
        0x0000078a:    4d7a        zM      LDR      r5,[pc,#488] ; [0x974] = 0xfff00000
        0x0000078c:    4252        RB      RSBS     r2,r2,#0
        0x0000078e:    419d        .A      SBCS     r5,r5,r3
        0x00000790:    2320         #      MOVS     r3,#0x20
        0x00000792:    4666        fF      MOV      r6,r12
        0x00000794:    1b9b        ..      SUBS     r3,r3,r6
        0x00000796:    d314        ..      BCC      0x7c2 ; _dsub1 + 120
        0x00000798:    4617        .F      MOV      r7,r2
        0x0000079a:    40f7        .@      LSRS     r7,r7,r6
        0x0000079c:    1838        8.      ADDS     r0,r7,r0
        0x0000079e:    2600        .&      MOVS     r6,#0
        0x000007a0:    9000        ..      STR      r0,[sp,#0]
        0x000007a2:    4174        tA      ADCS     r4,r4,r6
        0x000007a4:    4660        `F      MOV      r0,r12
        0x000007a6:    462f        /F      MOV      r7,r5
        0x000007a8:    4107        .A      ASRS     r7,r7,r0
        0x000007aa:    19e4        ..      ADDS     r4,r4,r7
        0x000007ac:    9800        ..      LDR      r0,[sp,#0]
        0x000007ae:    409d        .@      LSLS     r5,r5,r3
        0x000007b0:    1828        (.      ADDS     r0,r5,r0
        0x000007b2:    4166        fA      ADCS     r6,r6,r4
        0x000007b4:    d416        ..      BMI      0x7e4 ; _dsub1 + 154
        0x000007b6:    4671        qF      MOV      r1,lr
        0x000007b8:    1871        q.      ADDS     r1,r6,r1
        0x000007ba:    409a        .@      LSLS     r2,r2,r3
        0x000007bc:    d525        %.      BPL      0x80a ; _dsub1 + 192
        0x000007be:    2301        .#      MOVS     r3,#1
        0x000007c0:    e020         .      B        0x804 ; _dsub1 + 186
        0x000007c2:    1893        ..      ADDS     r3,r2,r2
        0x000007c4:    462a        *F      MOV      r2,r5
        0x000007c6:    416a        jA      ADCS     r2,r2,r5
        0x000007c8:    0052        R.      LSLS     r2,r2,#1
        0x000007ca:    2b00        .+      CMP      r3,#0
        0x000007cc:    d000        ..      BEQ      0x7d0 ; _dsub1 + 134
        0x000007ce:    1c52        R.      ADDS     r2,r2,#1
        0x000007d0:    3e20         >      SUBS     r6,r6,#0x20
        0x000007d2:    231e        .#      MOVS     r3,#0x1e
        0x000007d4:    1b9b        ..      SUBS     r3,r3,r6
        0x000007d6:    2b00        .+      CMP      r3,#0
        0x000007d8:    dd61        a.      BLE      0x89e ; _dsub1 + 340
        0x000007da:    4135        5A      ASRS     r5,r5,r6
        0x000007dc:    17ee        ..      ASRS     r6,r5,#31
        0x000007de:    1828        (.      ADDS     r0,r5,r0
        0x000007e0:    4166        fA      ADCS     r6,r6,r4
        0x000007e2:    d5e8        ..      BPL      0x7b6 ; _dsub1 + 108
        0x000007e4:    1800        ..      ADDS     r0,r0,r0
        0x000007e6:    4176        vA      ADCS     r6,r6,r6
        0x000007e8:    1c5b        [.      ADDS     r3,r3,#1
        0x000007ea:    409a        .@      LSLS     r2,r2,r3
        0x000007ec:    d300        ..      BCC      0x7f0 ; _dsub1 + 166
        0x000007ee:    1c40        @.      ADDS     r0,r0,#1
        0x000007f0:    054b        K.      LSLS     r3,r1,#21
        0x000007f2:    18f3        ..      ADDS     r3,r6,r3
        0x000007f4:    2415        .$      MOVS     r4,#0x15
        0x000007f6:    40e3        .@      LSRS     r3,r3,r4
        0x000007f8:    d310        ..      BCC      0x81c ; _dsub1 + 210
        0x000007fa:    2b00        .+      CMP      r3,#0
        0x000007fc:    d052        R.      BEQ      0x8a4 ; _dsub1 + 346
        0x000007fe:    4671        qF      MOV      r1,lr
        0x00000800:    1871        q.      ADDS     r1,r6,r1
        0x00000802:    0fd3        ..      LSRS     r3,r2,#31
        0x00000804:    18c0        ..      ADDS     r0,r0,r3
        0x00000806:    d302        ..      BCC      0x80e ; _dsub1 + 196
        0x00000808:    1c49        I.      ADDS     r1,r1,#1
        0x0000080a:    b005        ..      ADD      sp,sp,#0x14
        0x0000080c:    bdf0        ..      POP      {r4-r7,pc}
        0x0000080e:    2301        .#      MOVS     r3,#1
        0x00000810:    07db        ..      LSLS     r3,r3,#31
        0x00000812:    429a        .B      CMP      r2,r3
        0x00000814:    d1f9        ..      BNE      0x80a ; _dsub1 + 192
        0x00000816:    0840        @.      LSRS     r0,r0,#1
        0x00000818:    0040        @.      LSLS     r0,r0,#1
        0x0000081a:    e7f6        ..      B        0x80a ; _dsub1 + 192
        0x0000081c:    2201        ."      MOVS     r2,#1
        0x0000081e:    0552        R.      LSLS     r2,r2,#21
        0x00000820:    18b2        ..      ADDS     r2,r6,r2
        0x00000822:    d101        ..      BNE      0x828 ; _dsub1 + 222
        0x00000824:    2800        .(      CMP      r0,#0
        0x00000826:    d053        S.      BEQ      0x8d0 ; _dsub1 + 390
        0x00000828:    2301        .#      MOVS     r3,#1
        0x0000082a:    0acc        ..      LSRS     r4,r1,#11
        0x0000082c:    02db        ..      LSLS     r3,r3,#11
        0x0000082e:    4399        .C      BICS     r1,r1,r3
        0x00000830:    1e89        ..      SUBS     r1,r1,#2
        0x00000832:    2a00        .*      CMP      r2,#0
        0x00000834:    d108        ..      BNE      0x848 ; _dsub1 + 254
        0x00000836:    0c02        ..      LSRS     r2,r0,#16
        0x00000838:    d003        ..      BEQ      0x842 ; _dsub1 + 248
        0x0000083a:    0c02        ..      LSRS     r2,r0,#16
        0x0000083c:    0400        ..      LSLS     r0,r0,#16
        0x0000083e:    3910        .9      SUBS     r1,r1,#0x10
        0x00000840:    e002        ..      B        0x848 ; _dsub1 + 254
        0x00000842:    4602        .F      MOV      r2,r0
        0x00000844:    2000        .       MOVS     r0,#0
        0x00000846:    3920         9      SUBS     r1,r1,#0x20
        0x00000848:    2300        .#      MOVS     r3,#0
        0x0000084a:    0b55        U.      LSRS     r5,r2,#13
        0x0000084c:    d105        ..      BNE      0x85a ; _dsub1 + 272
        0x0000084e:    0212        ..      LSLS     r2,r2,#8
        0x00000850:    2308        .#      MOVS     r3,#8
        0x00000852:    0b55        U.      LSRS     r5,r2,#13
        0x00000854:    d101        ..      BNE      0x85a ; _dsub1 + 272
        0x00000856:    0152        R.      LSLS     r2,r2,#5
        0x00000858:    230d        .#      MOVS     r3,#0xd
        0x0000085a:    0c55        U.      LSRS     r5,r2,#17
        0x0000085c:    d101        ..      BNE      0x862 ; _dsub1 + 280
        0x0000085e:    0112        ..      LSLS     r2,r2,#4
        0x00000860:    1d1b        ..      ADDS     r3,r3,#4
        0x00000862:    0cd5        ..      LSRS     r5,r2,#19
        0x00000864:    d101        ..      BNE      0x86a ; _dsub1 + 288
        0x00000866:    0092        ..      LSLS     r2,r2,#2
        0x00000868:    1c9b        ..      ADDS     r3,r3,#2
        0x0000086a:    0d15        ..      LSRS     r5,r2,#20
        0x0000086c:    d101        ..      BNE      0x872 ; _dsub1 + 296
        0x0000086e:    0052        R.      LSLS     r2,r2,#1
        0x00000870:    1c5b        [.      ADDS     r3,r3,#1
        0x00000872:    2520         %      MOVS     r5,#0x20
        0x00000874:    1aee        ..      SUBS     r6,r5,r3
        0x00000876:    e001        ..      B        0x87c ; _dsub1 + 306
        0x00000878:    e02c        ,.      B        0x8d4 ; _dsub1 + 394
        0x0000087a:    e022        ".      B        0x8c2 ; _dsub1 + 376
        0x0000087c:    4605        .F      MOV      r5,r0
        0x0000087e:    40f5        .@      LSRS     r5,r5,r6
        0x00000880:    4315        .C      ORRS     r5,r5,r2
        0x00000882:    4098        .@      LSLS     r0,r0,r3
        0x00000884:    1aca        ..      SUBS     r2,r1,r3
        0x00000886:    07e1        ..      LSLS     r1,r4,#31
        0x00000888:    1869        i.      ADDS     r1,r5,r1
        0x0000088a:    0513        ..      LSLS     r3,r2,#20
        0x0000088c:    18c9        ..      ADDS     r1,r1,r3
        0x0000088e:    2a00        .*      CMP      r2,#0
        0x00000890:    dabb        ..      BGE      0x80a ; _dsub1 + 192
        0x00000892:    2003        .       MOVS     r0,#3
        0x00000894:    0740        @.      LSLS     r0,r0,#29
        0x00000896:    1808        ..      ADDS     r0,r1,r0
        0x00000898:    0fc1        ..      LSRS     r1,r0,#31
        0x0000089a:    07c9        ..      LSLS     r1,r1,#31
        0x0000089c:    e00f        ..      B        0x8be ; _dsub1 + 372
        0x0000089e:    4671        qF      MOV      r1,lr
        0x000008a0:    1861        a.      ADDS     r1,r4,r1
        0x000008a2:    e7b2        ..      B        0x80a ; _dsub1 + 192
        0x000008a4:    07f1        ..      LSLS     r1,r6,#31
        0x000008a6:    0840        @.      LSRS     r0,r0,#1
        0x000008a8:    4308        .C      ORRS     r0,r0,r1
        0x000008aa:    1071        q.      ASRS     r1,r6,#1
        0x000008ac:    4471        qD      ADD      r1,r1,lr
        0x000008ae:    004a        J.      LSLS     r2,r1,#1
        0x000008b0:    d00c        ..      BEQ      0x8cc ; _dsub1 + 386
        0x000008b2:    2301        .#      MOVS     r3,#1
        0x000008b4:    055b        [.      LSLS     r3,r3,#21
        0x000008b6:    429a        .B      CMP      r2,r3
        0x000008b8:    d2a7        ..      BCS      0x80a ; _dsub1 + 192
        0x000008ba:    0fc9        ..      LSRS     r1,r1,#31
        0x000008bc:    07c9        ..      LSLS     r1,r1,#31
        0x000008be:    2000        .       MOVS     r0,#0
        0x000008c0:    e7a3        ..      B        0x80a ; _dsub1 + 192
        0x000008c2:    0549        I.      LSLS     r1,r1,#21
        0x000008c4:    0d49        I.      LSRS     r1,r1,#21
        0x000008c6:    d125        %.      BNE      0x914 ; _dsub1 + 458
        0x000008c8:    2000        .       MOVS     r0,#0
        0x000008ca:    e001        ..      B        0x8d0 ; _dsub1 + 390
        0x000008cc:    2800        .(      CMP      r0,#0
        0x000008ce:    d1f4        ..      BNE      0x8ba ; _dsub1 + 368
        0x000008d0:    2100        .!      MOVS     r1,#0
        0x000008d2:    e79a        ..      B        0x80a ; _dsub1 + 192
        0x000008d4:    4d24        $M      LDR      r5,[pc,#144] ; [0x968] = 0xffe00000
        0x000008d6:    0066        f.      LSLS     r6,r4,#1
        0x000008d8:    2800        .(      CMP      r0,#0
        0x000008da:    d001        ..      BEQ      0x8e0 ; _dsub1 + 406
        0x000008dc:    2101        .!      MOVS     r1,#1
        0x000008de:    e000        ..      B        0x8e2 ; _dsub1 + 408
        0x000008e0:    2100        .!      MOVS     r1,#0
        0x000008e2:    1871        q.      ADDS     r1,r6,r1
        0x000008e4:    005f        _.      LSLS     r7,r3,#1
        0x000008e6:    2a00        .*      CMP      r2,#0
        0x000008e8:    d001        ..      BEQ      0x8ee ; _dsub1 + 420
        0x000008ea:    2601        .&      MOVS     r6,#1
        0x000008ec:    e000        ..      B        0x8f0 ; _dsub1 + 422
        0x000008ee:    2600        .&      MOVS     r6,#0
        0x000008f0:    19be        ..      ADDS     r6,r7,r6
        0x000008f2:    4f1f        .O      LDR      r7,[pc,#124] ; [0x970] = 0x7ff80000
        0x000008f4:    42a9        .B      CMP      r1,r5
        0x000008f6:    d80f        ..      BHI      0x918 ; _dsub1 + 462
        0x000008f8:    42ae        .B      CMP      r6,r5
        0x000008fa:    d80d        ..      BHI      0x918 ; _dsub1 + 462
        0x000008fc:    42b1        .B      CMP      r1,r6
        0x000008fe:    d007        ..      BEQ      0x910 ; _dsub1 + 454
        0x00000900:    00bd        ..      LSLS     r5,r7,#2
        0x00000902:    42a9        .B      CMP      r1,r5
        0x00000904:    d006        ..      BEQ      0x914 ; _dsub1 + 458
        0x00000906:    4619        .F      MOV      r1,r3
        0x00000908:    02a8        ..      LSLS     r0,r5,#10
        0x0000090a:    4041        A@      EORS     r1,r1,r0
        0x0000090c:    4610        .F      MOV      r0,r2
        0x0000090e:    e77c        |.      B        0x80a ; _dsub1 + 192
        0x00000910:    429c        .B      CMP      r4,r3
        0x00000912:    d001        ..      BEQ      0x918 ; _dsub1 + 462
        0x00000914:    4621        !F      MOV      r1,r4
        0x00000916:    e778        x.      B        0x80a ; _dsub1 + 192
        0x00000918:    2000        .       MOVS     r0,#0
        0x0000091a:    4639        9F      MOV      r1,r7
        0x0000091c:    e775        u.      B        0x80a ; _dsub1 + 192
    __aeabi_dadd
    _dadd
        0x0000091e:    b430        0.      PUSH     {r4,r5}
        0x00000920:    460c        .F      MOV      r4,r1
        0x00000922:    405c        \@      EORS     r4,r4,r3
        0x00000924:    d504        ..      BPL      0x930 ; __aeabi_dadd + 18
        0x00000926:    2401        .$      MOVS     r4,#1
        0x00000928:    07e4        ..      LSLS     r4,r4,#31
        0x0000092a:    4063        c@      EORS     r3,r3,r4
        0x0000092c:    bc30        0.      POP      {r4,r5}
        0x0000092e:    e70c        ..      B        _dsub1 ; 0x74a
        0x00000930:    bc30        0.      POP      {r4,r5}
        0x00000932:    e67b        {.      B        _dadd1 ; 0x62c
    __aeabi_dsub
    _dsub
        0x00000934:    b430        0.      PUSH     {r4,r5}
        0x00000936:    460c        .F      MOV      r4,r1
        0x00000938:    405c        \@      EORS     r4,r4,r3
        0x0000093a:    d504        ..      BPL      0x946 ; __aeabi_dsub + 18
        0x0000093c:    2401        .$      MOVS     r4,#1
        0x0000093e:    07e4        ..      LSLS     r4,r4,#31
        0x00000940:    4063        c@      EORS     r3,r3,r4
        0x00000942:    bc30        0.      POP      {r4,r5}
        0x00000944:    e672        r.      B        _dadd1 ; 0x62c
        0x00000946:    bc30        0.      POP      {r4,r5}
        0x00000948:    e6ff        ..      B        _dsub1 ; 0x74a
    __aeabi_drsub
    _drsb
        0x0000094a:    b430        0.      PUSH     {r4,r5}
        0x0000094c:    2401        .$      MOVS     r4,#1
        0x0000094e:    07e4        ..      LSLS     r4,r4,#31
        0x00000950:    4061        a@      EORS     r1,r1,r4
        0x00000952:    460d        .F      MOV      r5,r1
        0x00000954:    405d        ]@      EORS     r5,r5,r3
        0x00000956:    d401        ..      BMI      0x95c ; __aeabi_drsub + 18
        0x00000958:    bc30        0.      POP      {r4,r5}
        0x0000095a:    e667        g.      B        _dadd1 ; 0x62c
        0x0000095c:    4063        c@      EORS     r3,r3,r4
        0x0000095e:    bc30        0.      POP      {r4,r5}
        0x00000960:    e6f3        ..      B        _dsub1 ; 0x74a
    $d
        0x00000962:    0000        ..      DCW    0
        0x00000964:    000007ff    ....    DCD    2047
        0x00000968:    ffe00000    ....    DCD    4292870144
        0x0000096c:    7ff00000    ....    DCD    2146435072
        0x00000970:    7ff80000    ....    DCD    2146959360
        0x00000974:    fff00000    ....    DCD    4293918720
    $t
    .text
    __aeabi_dmul
    _dmul
        0x00000978:    b5f0        ..      PUSH     {r4-r7,lr}
        0x0000097a:    4c90        .L      LDR      r4,[pc,#576] ; [0xbbc] = 0x7ff0000
        0x0000097c:    090d        ..      LSRS     r5,r1,#4
        0x0000097e:    4626        &F      MOV      r6,r4
        0x00000980:    46ac        .F      MOV      r12,r5
        0x00000982:    43ae        .C      BICS     r6,r6,r5
        0x00000984:    460d        .F      MOV      r5,r1
        0x00000986:    405d        ]@      EORS     r5,r5,r3
        0x00000988:    b087        ..      SUB      sp,sp,#0x1c
        0x0000098a:    2e00        ..      CMP      r6,#0
        0x0000098c:    d07e        ~.      BEQ      0xa8c ; __aeabi_dmul + 276
        0x0000098e:    091e        ..      LSRS     r6,r3,#4
        0x00000990:    4627        'F      MOV      r7,r4
        0x00000992:    43b7        .C      BICS     r7,r7,r6
        0x00000994:    d0fa        ..      BEQ      0x98c ; __aeabi_dmul + 20
        0x00000996:    4667        gF      MOV      r7,r12
        0x00000998:    4027        '@      ANDS     r7,r7,r4
        0x0000099a:    0fed        ..      LSRS     r5,r5,#31
        0x0000099c:    433d        =C      ORRS     r5,r5,r7
        0x0000099e:    4026        &@      ANDS     r6,r6,r4
        0x000009a0:    d075        u.      BEQ      0xa8e ; __aeabi_dmul + 278
        0x000009a2:    0124        $.      LSLS     r4,r4,#4
        0x000009a4:    4221        !B      TST      r1,r4
        0x000009a6:    d0fb        ..      BEQ      0x9a0 ; __aeabi_dmul + 40
        0x000009a8:    1974        t.      ADDS     r4,r6,r5
        0x000009aa:    25ff        .%      MOVS     r5,#0xff
        0x000009ac:    04ad        ..      LSLS     r5,r5,#18
        0x000009ae:    1b64        d.      SUBS     r4,r4,r5
        0x000009b0:    9404        ..      STR      r4,[sp,#0x10]
        0x000009b2:    02cc        ..      LSLS     r4,r1,#11
        0x000009b4:    02d9        ..      LSLS     r1,r3,#11
        0x000009b6:    2301        .#      MOVS     r3,#1
        0x000009b8:    051b        ..      LSLS     r3,r3,#20
        0x000009ba:    0ac9        ..      LSRS     r1,r1,#11
        0x000009bc:    4319        .C      ORRS     r1,r1,r3
        0x000009be:    0ae4        ..      LSRS     r4,r4,#11
        0x000009c0:    431c        .C      ORRS     r4,r4,r3
        0x000009c2:    010f        ..      LSLS     r7,r1,#4
        0x000009c4:    0124        $.      LSLS     r4,r4,#4
        0x000009c6:    0f03        ..      LSRS     r3,r0,#28
        0x000009c8:    0f11        ..      LSRS     r1,r2,#28
        0x000009ca:    431c        .C      ORRS     r4,r4,r3
        0x000009cc:    430f        .C      ORRS     r7,r7,r1
        0x000009ce:    0105        ..      LSLS     r5,r0,#4
        0x000009d0:    0ba1        ..      LSRS     r1,r4,#14
        0x000009d2:    0388        ..      LSLS     r0,r1,#14
        0x000009d4:    092d        -.      LSRS     r5,r5,#4
        0x000009d6:    0116        ..      LSLS     r6,r2,#4
        0x000009d8:    4384        .C      BICS     r4,r4,r0
        0x000009da:    0ba8        ..      LSRS     r0,r5,#14
        0x000009dc:    0382        ..      LSLS     r2,r0,#14
        0x000009de:    4395        .C      BICS     r5,r5,r2
        0x000009e0:    0bbb        ..      LSRS     r3,r7,#14
        0x000009e2:    039a        ..      LSLS     r2,r3,#14
        0x000009e4:    4397        .C      BICS     r7,r7,r2
        0x000009e6:    0936        6.      LSRS     r6,r6,#4
        0x000009e8:    46bc        .F      MOV      r12,r7
        0x000009ea:    0bb2        ..      LSRS     r2,r6,#14
        0x000009ec:    0397        ..      LSLS     r7,r2,#14
        0x000009ee:    43be        .C      BICS     r6,r6,r7
        0x000009f0:    4607        .F      MOV      r7,r0
        0x000009f2:    4357        WC      MULS     r7,r2,r7
        0x000009f4:    9703        ..      STR      r7,[sp,#0xc]
        0x000009f6:    462f        /F      MOV      r7,r5
        0x000009f8:    4377        wC      MULS     r7,r6,r7
        0x000009fa:    9602        ..      STR      r6,[sp,#8]
        0x000009fc:    46be        .F      MOV      lr,r7
        0x000009fe:    9f02        ..      LDR      r7,[sp,#8]
        0x00000a00:    1946        F.      ADDS     r6,r0,r5
        0x00000a02:    19d7        ..      ADDS     r7,r2,r7
        0x00000a04:    9606        ..      STR      r6,[sp,#0x18]
        0x00000a06:    437e        ~C      MULS     r6,r7,r6
        0x00000a08:    9705        ..      STR      r7,[sp,#0x14]
        0x00000a0a:    9f03        ..      LDR      r7,[sp,#0xc]
        0x00000a0c:    1bf7        ..      SUBS     r7,r6,r7
        0x00000a0e:    4676        vF      MOV      r6,lr
        0x00000a10:    1bbe        ..      SUBS     r6,r7,r6
        0x00000a12:    4677        wF      MOV      r7,lr
        0x00000a14:    013f        ?.      LSLS     r7,r7,#4
        0x00000a16:    9700        ..      STR      r7,[sp,#0]
        0x00000a18:    9601        ..      STR      r6,[sp,#4]
        0x00000a1a:    9f03        ..      LDR      r7,[sp,#0xc]
        0x00000a1c:    0bb6        ..      LSRS     r6,r6,#14
        0x00000a1e:    19f6        ..      ADDS     r6,r6,r7
        0x00000a20:    46b6        .F      MOV      lr,r6
        0x00000a22:    9e01        ..      LDR      r6,[sp,#4]
        0x00000a24:    9f00        ..      LDR      r7,[sp,#0]
        0x00000a26:    04b6        ..      LSLS     r6,r6,#18
        0x00000a28:    19bf        ..      ADDS     r7,r7,r6
        0x00000a2a:    d302        ..      BCC      0xa32 ; __aeabi_dmul + 186
        0x00000a2c:    4676        vF      MOV      r6,lr
        0x00000a2e:    1c76        v.      ADDS     r6,r6,#1
        0x00000a30:    46b6        .F      MOV      lr,r6
        0x00000a32:    4676        vF      MOV      r6,lr
        0x00000a34:    0076        v.      LSLS     r6,r6,#1
        0x00000a36:    2f00        ./      CMP      r7,#0
        0x00000a38:    d001        ..      BEQ      0xa3e ; __aeabi_dmul + 198
        0x00000a3a:    2701        .'      MOVS     r7,#1
        0x00000a3c:    433e        >C      ORRS     r6,r6,r7
        0x00000a3e:    4667        gF      MOV      r7,r12
        0x00000a40:    437d        }C      MULS     r5,r7,r5
        0x00000a42:    46ae        .F      MOV      lr,r5
        0x00000a44:    9f02        ..      LDR      r7,[sp,#8]
        0x00000a46:    4625        %F      MOV      r5,r4
        0x00000a48:    437d        }C      MULS     r5,r7,r5
        0x00000a4a:    9500        ..      STR      r5,[sp,#0]
        0x00000a4c:    006d        m.      LSLS     r5,r5,#1
        0x00000a4e:    19ae        ..      ADDS     r6,r5,r6
        0x00000a50:    4675        uF      MOV      r5,lr
        0x00000a52:    006d        m.      LSLS     r5,r5,#1
        0x00000a54:    19af        ..      ADDS     r7,r5,r6
        0x00000a56:    4665        eF      MOV      r5,r12
        0x00000a58:    195d        ].      ADDS     r5,r3,r5
        0x00000a5a:    9e06        ..      LDR      r6,[sp,#0x18]
        0x00000a5c:    9503        ..      STR      r5,[sp,#0xc]
        0x00000a5e:    436e        nC      MULS     r6,r5,r6
        0x00000a60:    4675        uF      MOV      r5,lr
        0x00000a62:    1b75        u.      SUBS     r5,r6,r5
        0x00000a64:    46ae        .F      MOV      lr,r5
        0x00000a66:    190d        ..      ADDS     r5,r1,r4
        0x00000a68:    9e05        ..      LDR      r6,[sp,#0x14]
        0x00000a6a:    9502        ..      STR      r5,[sp,#8]
        0x00000a6c:    436e        nC      MULS     r6,r5,r6
        0x00000a6e:    9d00        ..      LDR      r5,[sp,#0]
        0x00000a70:    4358        XC      MULS     r0,r3,r0
        0x00000a72:    1b76        v.      SUBS     r6,r6,r5
        0x00000a74:    4675        uF      MOV      r5,lr
        0x00000a76:    1a2d        -.      SUBS     r5,r5,r0
        0x00000a78:    434a        JC      MULS     r2,r1,r2
        0x00000a7a:    4696        .F      MOV      lr,r2
        0x00000a7c:    1ab2        ..      SUBS     r2,r6,r2
        0x00000a7e:    9200        ..      STR      r2,[sp,#0]
        0x00000a80:    9501        ..      STR      r5,[sp,#4]
        0x00000a82:    06fa        ..      LSLS     r2,r7,#27
        0x00000a84:    d006        ..      BEQ      0xa94 ; __aeabi_dmul + 284
        0x00000a86:    097d        }.      LSRS     r5,r7,#5
        0x00000a88:    2201        ."      MOVS     r2,#1
        0x00000a8a:    e001        ..      B        0xa90 ; __aeabi_dmul + 280
        0x00000a8c:    e076        v.      B        0xb7c ; __aeabi_dmul + 516
        0x00000a8e:    e072        r.      B        0xb76 ; __aeabi_dmul + 510
        0x00000a90:    4315        .C      ORRS     r5,r5,r2
        0x00000a92:    e000        ..      B        0xa96 ; __aeabi_dmul + 286
        0x00000a94:    097d        }.      LSRS     r5,r7,#5
        0x00000a96:    0a02        ..      LSRS     r2,r0,#8
        0x00000a98:    0600        ..      LSLS     r0,r0,#24
        0x00000a9a:    2700        .'      MOVS     r7,#0
        0x00000a9c:    1945        E.      ADDS     r5,r0,r5
        0x00000a9e:    417a        zA      ADCS     r2,r2,r7
        0x00000aa0:    4676        vF      MOV      r6,lr
        0x00000aa2:    0a30        0.      LSRS     r0,r6,#8
        0x00000aa4:    0636        6.      LSLS     r6,r6,#24
        0x00000aa6:    1976        v.      ADDS     r6,r6,r5
        0x00000aa8:    4150        PA      ADCS     r0,r0,r2
        0x00000aaa:    9a01        ..      LDR      r2,[sp,#4]
        0x00000aac:    0d95        ..      LSRS     r5,r2,#22
        0x00000aae:    0292        ..      LSLS     r2,r2,#10
        0x00000ab0:    1996        ..      ADDS     r6,r2,r6
        0x00000ab2:    4145        EA      ADCS     r5,r5,r0
        0x00000ab4:    9800        ..      LDR      r0,[sp,#0]
        0x00000ab6:    0d82        ..      LSRS     r2,r0,#22
        0x00000ab8:    0280        ..      LSLS     r0,r0,#10
        0x00000aba:    1980        ..      ADDS     r0,r0,r6
        0x00000abc:    416a        jA      ADCS     r2,r2,r5
        0x00000abe:    4359        YC      MULS     r1,r3,r1
        0x00000ac0:    4663        cF      MOV      r3,r12
        0x00000ac2:    435c        \C      MULS     r4,r3,r4
        0x00000ac4:    9d03        ..      LDR      r5,[sp,#0xc]
        0x00000ac6:    9b02        ..      LDR      r3,[sp,#8]
        0x00000ac8:    436b        kC      MULS     r3,r5,r3
        0x00000aca:    1a5b        [.      SUBS     r3,r3,r1
        0x00000acc:    1b1e        ..      SUBS     r6,r3,r4
        0x00000ace:    0eb3        ..      LSRS     r3,r6,#26
        0x00000ad0:    01b6        ..      LSLS     r6,r6,#6
        0x00000ad2:    18b6        ..      ADDS     r6,r6,r2
        0x00000ad4:    417b        {A      ADCS     r3,r3,r7
        0x00000ad6:    0b0a        ..      LSRS     r2,r1,#12
        0x00000ad8:    0509        ..      LSLS     r1,r1,#20
        0x00000ada:    1989        ..      ADDS     r1,r1,r6
        0x00000adc:    415a        ZA      ADCS     r2,r2,r3
        0x00000ade:    0a23        #.      LSRS     r3,r4,#8
        0x00000ae0:    0624        $.      LSLS     r4,r4,#24
        0x00000ae2:    1824        $.      ADDS     r4,r4,r0
        0x00000ae4:    414b        KA      ADCS     r3,r3,r1
        0x00000ae6:    428b        .B      CMP      r3,r1
        0x00000ae8:    d200        ..      BCS      0xaec ; __aeabi_dmul + 372
        0x00000aea:    1c52        R.      ADDS     r2,r2,#1
        0x00000aec:    2001        .       MOVS     r0,#1
        0x00000aee:    0240        @.      LSLS     r0,r0,#9
        0x00000af0:    4282        .B      CMP      r2,r0
        0x00000af2:    d303        ..      BCC      0xafc ; __aeabi_dmul + 388
        0x00000af4:    2115        .!      MOVS     r1,#0x15
        0x00000af6:    2602        .&      MOVS     r6,#2
        0x00000af8:    43f6        .C      MVNS     r6,r6
        0x00000afa:    e002        ..      B        0xb02 ; __aeabi_dmul + 394
        0x00000afc:    2114        .!      MOVS     r1,#0x14
        0x00000afe:    2603        .&      MOVS     r6,#3
        0x00000b00:    43f6        .C      MVNS     r6,r6
        0x00000b02:    2020                MOVS     r0,#0x20
        0x00000b04:    1a45        E.      SUBS     r5,r0,r1
        0x00000b06:    40aa        .@      LSLS     r2,r2,r5
        0x00000b08:    461f        .F      MOV      r7,r3
        0x00000b0a:    40af        .@      LSLS     r7,r7,r5
        0x00000b0c:    40cb        .@      LSRS     r3,r3,r1
        0x00000b0e:    4620         F      MOV      r0,r4
        0x00000b10:    40c8        .@      LSRS     r0,r0,r1
        0x00000b12:    9904        ..      LDR      r1,[sp,#0x10]
        0x00000b14:    4313        .C      ORRS     r3,r3,r2
        0x00000b16:    1409        ..      ASRS     r1,r1,#16
        0x00000b18:    1871        q.      ADDS     r1,r6,r1
        0x00000b1a:    0509        ..      LSLS     r1,r1,#20
        0x00000b1c:    185a        Z.      ADDS     r2,r3,r1
        0x00000b1e:    9904        ..      LDR      r1,[sp,#0x10]
        0x00000b20:    4338        8C      ORRS     r0,r0,r7
        0x00000b22:    07c9        ..      LSLS     r1,r1,#31
        0x00000b24:    4051        Q@      EORS     r1,r1,r2
        0x00000b26:    40ac        .@      LSLS     r4,r4,r5
        0x00000b28:    d009        ..      BEQ      0xb3e ; __aeabi_dmul + 454
        0x00000b2a:    2301        .#      MOVS     r3,#1
        0x00000b2c:    409c        .@      LSLS     r4,r4,r3
        0x00000b2e:    d306        ..      BCC      0xb3e ; __aeabi_dmul + 454
        0x00000b30:    2300        .#      MOVS     r3,#0
        0x00000b32:    1c40        @.      ADDS     r0,r0,#1
        0x00000b34:    4159        YA      ADCS     r1,r1,r3
        0x00000b36:    2c00        .,      CMP      r4,#0
        0x00000b38:    d101        ..      BNE      0xb3e ; __aeabi_dmul + 454
        0x00000b3a:    0840        @.      LSRS     r0,r0,#1
        0x00000b3c:    0040        @.      LSLS     r0,r0,#1
        0x00000b3e:    4b20         K      LDR      r3,[pc,#128] ; [0xbc0] = 0x7ff00000
        0x00000b40:    2a00        .*      CMP      r2,#0
        0x00000b42:    db03        ..      BLT      0xb4c ; __aeabi_dmul + 468
        0x00000b44:    421a        .B      TST      r2,r3
        0x00000b46:    d001        ..      BEQ      0xb4c ; __aeabi_dmul + 468
        0x00000b48:    438b        .C      BICS     r3,r3,r1
        0x00000b4a:    d112        ..      BNE      0xb72 ; __aeabi_dmul + 506
        0x00000b4c:    2201        ."      MOVS     r2,#1
        0x00000b4e:    9804        ..      LDR      r0,[sp,#0x10]
        0x00000b50:    0692        ..      LSLS     r2,r2,#26
        0x00000b52:    4290        .B      CMP      r0,r2
        0x00000b54:    db07        ..      BLT      0xb66 ; __aeabi_dmul + 494
        0x00000b56:    2005        .       MOVS     r0,#5
        0x00000b58:    0740        @.      LSLS     r0,r0,#29
        0x00000b5a:    1809        ..      ADDS     r1,r1,r0
        0x00000b5c:    4819        .H      LDR      r0,[pc,#100] ; [0xbc4] = 0x7fffffff
        0x00000b5e:    4301        .C      ORRS     r1,r1,r0
        0x00000b60:    12c0        ..      ASRS     r0,r0,#11
        0x00000b62:    4041        A@      EORS     r1,r1,r0
        0x00000b64:    e004        ..      B        0xb70 ; __aeabi_dmul + 504
        0x00000b66:    2003        .       MOVS     r0,#3
        0x00000b68:    0740        @.      LSLS     r0,r0,#29
        0x00000b6a:    1808        ..      ADDS     r0,r1,r0
        0x00000b6c:    0fc1        ..      LSRS     r1,r0,#31
        0x00000b6e:    07c9        ..      LSLS     r1,r1,#31
        0x00000b70:    2000        .       MOVS     r0,#0
        0x00000b72:    b007        ..      ADD      sp,sp,#0x1c
        0x00000b74:    bdf0        ..      POP      {r4-r7,pc}
        0x00000b76:    2000        .       MOVS     r0,#0
        0x00000b78:    07e9        ..      LSLS     r1,r5,#31
        0x00000b7a:    e7fa        ..      B        0xb72 ; __aeabi_dmul + 506
        0x00000b7c:    1806        ..      ADDS     r6,r0,r0
        0x00000b7e:    460c        .F      MOV      r4,r1
        0x00000b80:    414c        LA      ADCS     r4,r4,r1
        0x00000b82:    4811        .H      LDR      r0,[pc,#68] ; [0xbc8] = 0xffe00000
        0x00000b84:    4276        vB      RSBS     r6,r6,#0
        0x00000b86:    41a0        .A      SBCS     r0,r0,r4
        0x00000b88:    d314        ..      BCC      0xbb4 ; __aeabi_dmul + 572
        0x00000b8a:    1894        ..      ADDS     r4,r2,r2
        0x00000b8c:    461a        .F      MOV      r2,r3
        0x00000b8e:    415a        ZA      ADCS     r2,r2,r3
        0x00000b90:    480d        .H      LDR      r0,[pc,#52] ; [0xbc8] = 0xffe00000
        0x00000b92:    4264        dB      RSBS     r4,r4,#0
        0x00000b94:    4190        .A      SBCS     r0,r0,r2
        0x00000b96:    d30d        ..      BCC      0xbb4 ; __aeabi_dmul + 572
        0x00000b98:    2001        .       MOVS     r0,#1
        0x00000b9a:    0049        I.      LSLS     r1,r1,#1
        0x00000b9c:    0540        @.      LSLS     r0,r0,#21
        0x00000b9e:    4281        .B      CMP      r1,r0
        0x00000ba0:    d308        ..      BCC      0xbb4 ; __aeabi_dmul + 572
        0x00000ba2:    0059        Y.      LSLS     r1,r3,#1
        0x00000ba4:    4281        .B      CMP      r1,r0
        0x00000ba6:    d305        ..      BCC      0xbb4 ; __aeabi_dmul + 572
        0x00000ba8:    0fe9        ..      LSRS     r1,r5,#31
        0x00000baa:    4a05        .J      LDR      r2,[pc,#20] ; [0xbc0] = 0x7ff00000
        0x00000bac:    07c9        ..      LSLS     r1,r1,#31
        0x00000bae:    2000        .       MOVS     r0,#0
        0x00000bb0:    4311        .C      ORRS     r1,r1,r2
        0x00000bb2:    e7de        ..      B        0xb72 ; __aeabi_dmul + 506
        0x00000bb4:    2000        .       MOVS     r0,#0
        0x00000bb6:    4905        .I      LDR      r1,[pc,#20] ; [0xbcc] = 0x7ff80000
        0x00000bb8:    e7db        ..      B        0xb72 ; __aeabi_dmul + 506
    $d
        0x00000bba:    0000        ..      DCW    0
        0x00000bbc:    07ff0000    ....    DCD    134152192
        0x00000bc0:    7ff00000    ....    DCD    2146435072
        0x00000bc4:    7fffffff    ....    DCD    2147483647
        0x00000bc8:    ffe00000    ....    DCD    4292870144
        0x00000bcc:    7ff80000    ....    DCD    2146959360
    $t
    .text
    __aeabi_f2d
    _f2d
        0x00000bd0:    2101        .!      MOVS     r1,#1
        0x00000bd2:    05c9        ..      LSLS     r1,r1,#23
        0x00000bd4:    2301        .#      MOVS     r3,#1
        0x00000bd6:    1841        A.      ADDS     r1,r0,r1
        0x00000bd8:    0042        B.      LSLS     r2,r0,#1
        0x00000bda:    061b        ..      LSLS     r3,r3,#24
        0x00000bdc:    18d3        ..      ADDS     r3,r2,r3
        0x00000bde:    0e5b        [.      LSRS     r3,r3,#25
        0x00000be0:    d00b        ..      BEQ      0xbfa ; __aeabi_f2d + 42
        0x00000be2:    10c1        ..      ASRS     r1,r0,#3
        0x00000be4:    2207        ."      MOVS     r2,#7
        0x00000be6:    06d2        ..      LSLS     r2,r2,#27
        0x00000be8:    1889        ..      ADDS     r1,r1,r2
        0x00000bea:    0740        @.      LSLS     r0,r0,#29
        0x00000bec:    4252        RB      RSBS     r2,r2,#0
        0x00000bee:    188a        ..      ADDS     r2,r1,r2
        0x00000bf0:    d502        ..      BPL      0xbf8 ; __aeabi_f2d + 40
        0x00000bf2:    2209        ."      MOVS     r2,#9
        0x00000bf4:    0712        ..      LSLS     r2,r2,#28
        0x00000bf6:    1889        ..      ADDS     r1,r1,r2
        0x00000bf8:    4770        pG      BX       lr
        0x00000bfa:    0209        ..      LSLS     r1,r1,#8
        0x00000bfc:    d508        ..      BPL      0xc10 ; __aeabi_f2d + 64
        0x00000bfe:    4601        .F      MOV      r1,r0
        0x00000c00:    2a00        .*      CMP      r2,#0
        0x00000c02:    d003        ..      BEQ      0xc0c ; __aeabi_f2d + 60
        0x00000c04:    0fc1        ..      LSRS     r1,r0,#31
        0x00000c06:    07c9        ..      LSLS     r1,r1,#31
        0x00000c08:    2000        .       MOVS     r0,#0
        0x00000c0a:    4770        pG      BX       lr
        0x00000c0c:    4610        .F      MOV      r0,r2
        0x00000c0e:    4770        pG      BX       lr
        0x00000c10:    0242        B.      LSLS     r2,r0,#9
        0x00000c12:    d002        ..      BEQ      0xc1a ; __aeabi_f2d + 74
        0x00000c14:    2000        .       MOVS     r0,#0
        0x00000c16:    4903        .I      LDR      r1,[pc,#12] ; [0xc24] = 0x7ff80000
        0x00000c18:    4770        pG      BX       lr
        0x00000c1a:    2107        .!      MOVS     r1,#7
        0x00000c1c:    0509        ..      LSLS     r1,r1,#20
        0x00000c1e:    4301        .C      ORRS     r1,r1,r0
        0x00000c20:    e7f4        ..      B        0xc0c ; __aeabi_f2d + 60
    $d
        0x00000c22:    0000        ..      DCW    0
        0x00000c24:    7ff80000    ....    DCD    2146959360
    $t
    .text
    __aeabi_fdiv
    _fdiv
        0x00000c28:    b570        p.      PUSH     {r4-r6,lr}
        0x00000c2a:    24ff        .$      MOVS     r4,#0xff
        0x00000c2c:    0424        $.      LSLS     r4,r4,#16
        0x00000c2e:    09c6        ..      LSRS     r6,r0,#7
        0x00000c30:    25ff        .%      MOVS     r5,#0xff
        0x00000c32:    4026        &@      ANDS     r6,r6,r4
        0x00000c34:    3501        .5      ADDS     r5,#1
        0x00000c36:    432e        .C      ORRS     r6,r6,r5
        0x00000c38:    09c2        ..      LSRS     r2,r0,#7
        0x00000c3a:    09cb        ..      LSRS     r3,r1,#7
        0x00000c3c:    4605        .F      MOV      r5,r0
        0x00000c3e:    4022        "@      ANDS     r2,r2,r4
        0x00000c40:    4023        #@      ANDS     r3,r3,r4
        0x00000c42:    404d        M@      EORS     r5,r5,r1
        0x00000c44:    2a00        .*      CMP      r2,#0
        0x00000c46:    d06b        k.      BEQ      0xd20 ; __aeabi_fdiv + 248
        0x00000c48:    2b00        .+      CMP      r3,#0
        0x00000c4a:    d069        i.      BEQ      0xd20 ; __aeabi_fdiv + 248
        0x00000c4c:    42a2        .B      CMP      r2,r4
        0x00000c4e:    d067        g.      BEQ      0xd20 ; __aeabi_fdiv + 248
        0x00000c50:    42a3        .B      CMP      r3,r4
        0x00000c52:    d065        e.      BEQ      0xd20 ; __aeabi_fdiv + 248
        0x00000c54:    2d00        .-      CMP      r5,#0
        0x00000c56:    da00        ..      BGE      0xc5a ; __aeabi_fdiv + 50
        0x00000c58:    4632        2F      MOV      r2,r6
        0x00000c5a:    2401        .$      MOVS     r4,#1
        0x00000c5c:    05e4        ..      LSLS     r4,r4,#23
        0x00000c5e:    4321        !C      ORRS     r1,r1,r4
        0x00000c60:    4320         C      ORRS     r0,r0,r4
        0x00000c62:    0209        ..      LSLS     r1,r1,#8
        0x00000c64:    0200        ..      LSLS     r0,r0,#8
        0x00000c66:    0a09        ..      LSRS     r1,r1,#8
        0x00000c68:    1ad2        ..      SUBS     r2,r2,r3
        0x00000c6a:    0a00        ..      LSRS     r0,r0,#8
        0x00000c6c:    0c4b        K.      LSRS     r3,r1,#17
        0x00000c6e:    247f        .$      MOVS     r4,#0x7f
        0x00000c70:    1ae3        ..      SUBS     r3,r4,r3
        0x00000c72:    4c43        CL      LDR      r4,[pc,#268] ; [0xd80] = 0x2b15
        0x00000c74:    447c        |D      ADD      r4,r4,pc
        0x00000c76:    5ce3        .\      LDRB     r3,[r4,r3]
        0x00000c78:    247d        }$      MOVS     r4,#0x7d
        0x00000c7a:    0424        $.      LSLS     r4,r4,#16
        0x00000c7c:    1912        ..      ADDS     r2,r2,r4
        0x00000c7e:    1414        ..      ASRS     r4,r2,#16
        0x00000c80:    005b        [.      LSLS     r3,r3,#1
        0x00000c82:    18a2        ..      ADDS     r2,r4,r2
        0x00000c84:    4288        .B      CMP      r0,r1
        0x00000c86:    d301        ..      BCC      0xc8c ; __aeabi_fdiv + 100
        0x00000c88:    1c52        R.      ADDS     r2,r2,#1
        0x00000c8a:    e000        ..      B        0xc8e ; __aeabi_fdiv + 102
        0x00000c8c:    0040        @.      LSLS     r0,r0,#1
        0x00000c8e:    4249        IB      RSBS     r1,r1,#0
        0x00000c90:    460c        .F      MOV      r4,r1
        0x00000c92:    435c        \C      MULS     r4,r3,r4
        0x00000c94:    1124        $.      ASRS     r4,r4,#4
        0x00000c96:    435c        \C      MULS     r4,r3,r4
        0x00000c98:    01db        ..      LSLS     r3,r3,#7
        0x00000c9a:    1564        d.      ASRS     r4,r4,#21
        0x00000c9c:    18e3        ..      ADDS     r3,r4,r3
        0x00000c9e:    0a04        ..      LSRS     r4,r0,#8
        0x00000ca0:    435c        \C      MULS     r4,r3,r4
        0x00000ca2:    02c5        ..      LSLS     r5,r0,#11
        0x00000ca4:    0d20         .      LSRS     r0,r4,#20
        0x00000ca6:    460c        .F      MOV      r4,r1
        0x00000ca8:    4344        DC      MULS     r4,r0,r4
        0x00000caa:    1964        d.      ADDS     r4,r4,r5
        0x00000cac:    0a25        %.      LSRS     r5,r4,#8
        0x00000cae:    435d        ]C      MULS     r5,r3,r5
        0x00000cb0:    0323        #.      LSLS     r3,r4,#12
        0x00000cb2:    0cec        ..      LSRS     r4,r5,#19
        0x00000cb4:    460d        .F      MOV      r5,r1
        0x00000cb6:    4365        eC      MULS     r5,r4,r5
        0x00000cb8:    0300        ..      LSLS     r0,r0,#12
        0x00000cba:    1900        ..      ADDS     r0,r0,r4
        0x00000cbc:    18eb        ..      ADDS     r3,r5,r3
        0x00000cbe:    424c        LB      RSBS     r4,r1,#0
        0x00000cc0:    42a3        .B      CMP      r3,r4
        0x00000cc2:    d301        ..      BCC      0xcc8 ; __aeabi_fdiv + 160
        0x00000cc4:    185b        [.      ADDS     r3,r3,r1
        0x00000cc6:    1c40        @.      ADDS     r0,r0,#1
        0x00000cc8:    05d4        ..      LSLS     r4,r2,#23
        0x00000cca:    1820         .      ADDS     r0,r4,r0
        0x00000ccc:    2b00        .+      CMP      r3,#0
        0x00000cce:    d007        ..      BEQ      0xce0 ; __aeabi_fdiv + 184
        0x00000cd0:    005b        [.      LSLS     r3,r3,#1
        0x00000cd2:    18c9        ..      ADDS     r1,r1,r3
        0x00000cd4:    d304        ..      BCC      0xce0 ; __aeabi_fdiv + 184
        0x00000cd6:    1c40        @.      ADDS     r0,r0,#1
        0x00000cd8:    2900        .)      CMP      r1,#0
        0x00000cda:    d101        ..      BNE      0xce0 ; __aeabi_fdiv + 184
        0x00000cdc:    0840        @.      LSRS     r0,r0,#1
        0x00000cde:    0040        @.      LSLS     r0,r0,#1
        0x00000ce0:    213f        ?!      MOVS     r1,#0x3f
        0x00000ce2:    0489        ..      LSLS     r1,r1,#18
        0x00000ce4:    428a        .B      CMP      r2,r1
        0x00000ce6:    d309        ..      BCC      0xcfc ; __aeabi_fdiv + 212
        0x00000ce8:    2a00        .*      CMP      r2,#0
        0x00000cea:    dc08        ..      BGT      0xcfe ; __aeabi_fdiv + 214
        0x00000cec:    0611        ..      LSLS     r1,r2,#24
        0x00000cee:    0f09        ..      LSRS     r1,r1,#28
        0x00000cf0:    d004        ..      BEQ      0xcfc ; __aeabi_fdiv + 212
        0x00000cf2:    2103        .!      MOVS     r1,#3
        0x00000cf4:    0749        I.      LSLS     r1,r1,#29
        0x00000cf6:    1840        @.      ADDS     r0,r0,r1
        0x00000cf8:    0fc0        ..      LSRS     r0,r0,#31
        0x00000cfa:    07c0        ..      LSLS     r0,r0,#31
        0x00000cfc:    bd70        p.      POP      {r4-r6,pc}
        0x00000cfe:    2201        ."      MOVS     r2,#1
        0x00000d00:    0041        A.      LSLS     r1,r0,#1
        0x00000d02:    0612        ..      LSLS     r2,r2,#24
        0x00000d04:    1889        ..      ADDS     r1,r1,r2
        0x00000d06:    227f        ."      MOVS     r2,#0x7f
        0x00000d08:    0652        R.      LSLS     r2,r2,#25
        0x00000d0a:    4291        .B      CMP      r1,r2
        0x00000d0c:    d2f6        ..      BCS      0xcfc ; __aeabi_fdiv + 212
        0x00000d0e:    2105        .!      MOVS     r1,#5
        0x00000d10:    0749        I.      LSLS     r1,r1,#29
        0x00000d12:    1840        @.      ADDS     r0,r0,r1
        0x00000d14:    d501        ..      BPL      0xd1a ; __aeabi_fdiv + 242
        0x00000d16:    1090        ..      ASRS     r0,r2,#2
        0x00000d18:    bd70        p.      POP      {r4-r6,pc}
        0x00000d1a:    20ff        .       MOVS     r0,#0xff
        0x00000d1c:    05c0        ..      LSLS     r0,r0,#23
        0x00000d1e:    bd70        p.      POP      {r4-r6,pc}
        0x00000d20:    2d00        .-      CMP      r5,#0
        0x00000d22:    da00        ..      BGE      0xd26 ; __aeabi_fdiv + 254
        0x00000d24:    4632        2F      MOV      r2,r6
        0x00000d26:    4e17        .N      LDR      r6,[pc,#92] ; [0xd84] = 0x7fc00000
        0x00000d28:    42a2        .B      CMP      r2,r4
        0x00000d2a:    d207        ..      BCS      0xd3c ; __aeabi_fdiv + 276
        0x00000d2c:    42a3        .B      CMP      r3,r4
        0x00000d2e:    d205        ..      BCS      0xd3c ; __aeabi_fdiv + 276
        0x00000d30:    0218        ..      LSLS     r0,r3,#8
        0x00000d32:    0e00        ..      LSRS     r0,r0,#24
        0x00000d34:    d017        ..      BEQ      0xd66 ; __aeabi_fdiv + 318
        0x00000d36:    0fe8        ..      LSRS     r0,r5,#31
        0x00000d38:    07c0        ..      LSLS     r0,r0,#31
        0x00000d3a:    bd70        p.      POP      {r4-r6,pc}
        0x00000d3c:    24ff        .$      MOVS     r4,#0xff
        0x00000d3e:    0043        C.      LSLS     r3,r0,#1
        0x00000d40:    0624        $.      LSLS     r4,r4,#24
        0x00000d42:    42a3        .B      CMP      r3,r4
        0x00000d44:    d816        ..      BHI      0xd74 ; __aeabi_fdiv + 332
        0x00000d46:    0049        I.      LSLS     r1,r1,#1
        0x00000d48:    42a1        .B      CMP      r1,r4
        0x00000d4a:    d813        ..      BHI      0xd74 ; __aeabi_fdiv + 332
        0x00000d4c:    42a3        .B      CMP      r3,r4
        0x00000d4e:    d101        ..      BNE      0xd54 ; __aeabi_fdiv + 300
        0x00000d50:    42a1        .B      CMP      r1,r4
        0x00000d52:    d00f        ..      BEQ      0xd74 ; __aeabi_fdiv + 332
        0x00000d54:    42a1        .B      CMP      r1,r4
        0x00000d56:    d101        ..      BNE      0xd5c ; __aeabi_fdiv + 308
        0x00000d58:    2100        .!      MOVS     r1,#0
        0x00000d5a:    e001        ..      B        0xd60 ; __aeabi_fdiv + 312
        0x00000d5c:    0041        A.      LSLS     r1,r0,#1
        0x00000d5e:    0849        I.      LSRS     r1,r1,#1
        0x00000d60:    05d0        ..      LSLS     r0,r2,#23
        0x00000d62:    4308        .C      ORRS     r0,r0,r1
        0x00000d64:    bd70        p.      POP      {r4-r6,pc}
        0x00000d66:    0210        ..      LSLS     r0,r2,#8
        0x00000d68:    0e00        ..      LSRS     r0,r0,#24
        0x00000d6a:    d003        ..      BEQ      0xd74 ; __aeabi_fdiv + 332
        0x00000d6c:    20ff        .       MOVS     r0,#0xff
        0x00000d6e:    4302        .C      ORRS     r2,r2,r0
        0x00000d70:    05d0        ..      LSLS     r0,r2,#23
        0x00000d72:    bd70        p.      POP      {r4-r6,pc}
        0x00000d74:    4630        0F      MOV      r0,r6
        0x00000d76:    bd70        p.      POP      {r4-r6,pc}
    _frdiv
        0x00000d78:    4048        H@      EORS     r0,r0,r1
        0x00000d7a:    4041        A@      EORS     r1,r1,r0
        0x00000d7c:    4048        H@      EORS     r0,r0,r1
        0x00000d7e:    e753        S.      B        __aeabi_fdiv ; 0xc28
    $d
        0x00000d80:    00002b15    .+..    DCD    11029
        0x00000d84:    7fc00000    ....    DCD    2143289344
    $t
    .text
    __aeabi_f2iz
    _ffix
        0x00000d88:    b510        ..      PUSH     {r4,lr}
        0x00000d8a:    4602        .F      MOV      r2,r0
        0x00000d8c:    249e        .$      MOVS     r4,#0x9e
        0x00000d8e:    0200        ..      LSLS     r0,r0,#8
        0x00000d90:    15d1        ..      ASRS     r1,r2,#23
        0x00000d92:    07a3        ..      LSLS     r3,r4,#30
        0x00000d94:    2900        .)      CMP      r1,#0
        0x00000d96:    d002        ..      BEQ      0xd9e ; __aeabi_f2iz + 22
        0x00000d98:    4318        .C      ORRS     r0,r0,r3
        0x00000d9a:    2900        .)      CMP      r1,#0
        0x00000d9c:    db04        ..      BLT      0xda8 ; __aeabi_f2iz + 32
        0x00000d9e:    1a61        a.      SUBS     r1,r4,r1
        0x00000da0:    2900        .)      CMP      r1,#0
        0x00000da2:    dd0c        ..      BLE      0xdbe ; __aeabi_f2iz + 54
        0x00000da4:    40c8        .@      LSRS     r0,r0,r1
        0x00000da6:    bd10        ..      POP      {r4,pc}
        0x00000da8:    0609        ..      LSLS     r1,r1,#24
        0x00000daa:    0e09        ..      LSRS     r1,r1,#24
        0x00000dac:    d101        ..      BNE      0xdb2 ; __aeabi_f2iz + 42
        0x00000dae:    0040        @.      LSLS     r0,r0,#1
        0x00000db0:    0840        @.      LSRS     r0,r0,#1
        0x00000db2:    1a61        a.      SUBS     r1,r4,r1
        0x00000db4:    d403        ..      BMI      0xdbe ; __aeabi_f2iz + 54
        0x00000db6:    40c8        .@      LSRS     r0,r0,r1
        0x00000db8:    4240        @B      RSBS     r0,r0,#0
        0x00000dba:    2800        .(      CMP      r0,#0
        0x00000dbc:    ddf3        ..      BLE      0xda6 ; __aeabi_f2iz + 30
        0x00000dbe:    21ff        .!      MOVS     r1,#0xff
        0x00000dc0:    0050        P.      LSLS     r0,r2,#1
        0x00000dc2:    0609        ..      LSLS     r1,r1,#24
        0x00000dc4:    4288        .B      CMP      r0,r1
        0x00000dc6:    d901        ..      BLS      0xdcc ; __aeabi_f2iz + 68
        0x00000dc8:    2000        .       MOVS     r0,#0
        0x00000dca:    bd10        ..      POP      {r4,pc}
        0x00000dcc:    17d0        ..      ASRS     r0,r2,#31
        0x00000dce:    43c0        .C      MVNS     r0,r0
        0x00000dd0:    4058        X@      EORS     r0,r0,r3
        0x00000dd2:    bd10        ..      POP      {r4,pc}
    .text
    __aeabi_i2f_normalise
        0x00000dd4:    221f        ."      MOVS     r2,#0x1f
        0x00000dd6:    0c03        ..      LSRS     r3,r0,#16
        0x00000dd8:    d102        ..      BNE      0xde0 ; __aeabi_i2f_normalise + 12
        0x00000dda:    220f        ."      MOVS     r2,#0xf
        0x00000ddc:    0400        ..      LSLS     r0,r0,#16
        0x00000dde:    d01c        ..      BEQ      0xe1a ; __aeabi_i2f_normalise + 70
        0x00000de0:    0e03        ..      LSRS     r3,r0,#24
        0x00000de2:    d101        ..      BNE      0xde8 ; __aeabi_i2f_normalise + 20
        0x00000de4:    3a08        .:      SUBS     r2,r2,#8
        0x00000de6:    0200        ..      LSLS     r0,r0,#8
        0x00000de8:    0f03        ..      LSRS     r3,r0,#28
        0x00000dea:    d101        ..      BNE      0xdf0 ; __aeabi_i2f_normalise + 28
        0x00000dec:    1f12        ..      SUBS     r2,r2,#4
        0x00000dee:    0100        ..      LSLS     r0,r0,#4
        0x00000df0:    0f83        ..      LSRS     r3,r0,#30
        0x00000df2:    d101        ..      BNE      0xdf8 ; __aeabi_i2f_normalise + 36
        0x00000df4:    1e92        ..      SUBS     r2,r2,#2
        0x00000df6:    0080        ..      LSLS     r0,r0,#2
        0x00000df8:    2800        .(      CMP      r0,#0
        0x00000dfa:    db01        ..      BLT      0xe00 ; __aeabi_i2f_normalise + 44
        0x00000dfc:    1e52        R.      SUBS     r2,r2,#1
        0x00000dfe:    0040        @.      LSLS     r0,r0,#1
        0x00000e00:    05d2        ..      LSLS     r2,r2,#23
        0x00000e02:    1851        Q.      ADDS     r1,r2,r1
        0x00000e04:    1202        ..      ASRS     r2,r0,#8
        0x00000e06:    1851        Q.      ADDS     r1,r2,r1
        0x00000e08:    2219        ."      MOVS     r2,#0x19
        0x00000e0a:    4090        .@      LSLS     r0,r0,r2
        0x00000e0c:    d304        ..      BCC      0xe18 ; __aeabi_i2f_normalise + 68
        0x00000e0e:    1c49        I.      ADDS     r1,r1,#1
        0x00000e10:    2800        .(      CMP      r0,#0
        0x00000e12:    d101        ..      BNE      0xe18 ; __aeabi_i2f_normalise + 68
        0x00000e14:    0849        I.      LSRS     r1,r1,#1
        0x00000e16:    0049        I.      LSLS     r1,r1,#1
        0x00000e18:    4608        .F      MOV      r0,r1
        0x00000e1a:    4770        pG      BX       lr
    __aeabi_i2f
    _fflt
        0x00000e1c:    0fc1        ..      LSRS     r1,r0,#31
        0x00000e1e:    07c9        ..      LSLS     r1,r1,#31
        0x00000e20:    d000        ..      BEQ      0xe24 ; __aeabi_i2f + 8
        0x00000e22:    4240        @B      RSBS     r0,r0,#0
        0x00000e24:    2201        ."      MOVS     r2,#1
        0x00000e26:    0792        ..      LSLS     r2,r2,#30
        0x00000e28:    4311        .C      ORRS     r1,r1,r2
        0x00000e2a:    e7d3        ..      B        __aeabi_i2f_normalise ; 0xdd4
    __aeabi_ui2f
    _ffltu
        0x00000e2c:    2101        .!      MOVS     r1,#1
        0x00000e2e:    0789        ..      LSLS     r1,r1,#30
        0x00000e30:    e7d0        ..      B        __aeabi_i2f_normalise ; 0xdd4
    .text
    __read_errno
        0x00000e32:    b510        ..      PUSH     {r4,lr}
        0x00000e34:    f000f9a4    ....    BL       __aeabi_errno_addr ; 0x1180
        0x00000e38:    6800        .h      LDR      r0,[r0,#0]
        0x00000e3a:    bd10        ..      POP      {r4,pc}
    __set_errno
        0x00000e3c:    b510        ..      PUSH     {r4,lr}
        0x00000e3e:    4604        .F      MOV      r4,r0
        0x00000e40:    f000f99e    ....    BL       __aeabi_errno_addr ; 0x1180
        0x00000e44:    6004        .`      STR      r4,[r0,#0]
        0x00000e46:    bd10        ..      POP      {r4,pc}
    .text
    _printf_int_common
        0x00000e48:    b5ff        ..      PUSH     {r0-r7,lr}
        0x00000e4a:    4604        .F      MOV      r4,r0
        0x00000e4c:    460d        .F      MOV      r5,r1
        0x00000e4e:    b081        ..      SUB      sp,sp,#4
        0x00000e50:    3024        $0      ADDS     r0,r0,#0x24
        0x00000e52:    9000        ..      STR      r0,[sp,#0]
        0x00000e54:    6821        !h      LDR      r1,[r4,#0]
        0x00000e56:    0688        ..      LSLS     r0,r1,#26
        0x00000e58:    d504        ..      BPL      0xe64 ; _printf_int_common + 28
        0x00000e5a:    2210        ."      MOVS     r2,#0x10
        0x00000e5c:    69e0        .i      LDR      r0,[r4,#0x1c]
        0x00000e5e:    4391        .C      BICS     r1,r1,r2
        0x00000e60:    6021        !`      STR      r1,[r4,#0]
        0x00000e62:    e000        ..      B        0xe66 ; _printf_int_common + 30
        0x00000e64:    2001        .       MOVS     r0,#1
        0x00000e66:    42a8        .B      CMP      r0,r5
        0x00000e68:    dd01        ..      BLE      0xe6e ; _printf_int_common + 38
        0x00000e6a:    1b47        G.      SUBS     r7,r0,r5
        0x00000e6c:    e000        ..      B        0xe70 ; _printf_int_common + 40
        0x00000e6e:    2700        .'      MOVS     r7,#0
        0x00000e70:    9804        ..      LDR      r0,[sp,#0x10]
        0x00000e72:    69a1        .i      LDR      r1,[r4,#0x18]
        0x00000e74:    197a        z.      ADDS     r2,r7,r5
        0x00000e76:    1810        ..      ADDS     r0,r2,r0
        0x00000e78:    1a08        ..      SUBS     r0,r1,r0
        0x00000e7a:    61a0        .a      STR      r0,[r4,#0x18]
        0x00000e7c:    7820         x      LDRB     r0,[r4,#0]
        0x00000e7e:    06c0        ..      LSLS     r0,r0,#27
        0x00000e80:    d402        ..      BMI      0xe88 ; _printf_int_common + 64
        0x00000e82:    4620         F      MOV      r0,r4
        0x00000e84:    f7fff9c2    ....    BL       _printf_pre_padding ; 0x20c
        0x00000e88:    2600        .&      MOVS     r6,#0
        0x00000e8a:    e008        ..      B        0xe9e ; _printf_int_common + 86
        0x00000e8c:    9803        ..      LDR      r0,[sp,#0xc]
        0x00000e8e:    6862        bh      LDR      r2,[r4,#4]
        0x00000e90:    68a1        .h      LDR      r1,[r4,#8]
        0x00000e92:    5d80        .]      LDRB     r0,[r0,r6]
        0x00000e94:    4790        .G      BLX      r2
        0x00000e96:    6a20         j      LDR      r0,[r4,#0x20]
        0x00000e98:    1c40        @.      ADDS     r0,r0,#1
        0x00000e9a:    1c76        v.      ADDS     r6,r6,#1
        0x00000e9c:    6220         b      STR      r0,[r4,#0x20]
        0x00000e9e:    9804        ..      LDR      r0,[sp,#0x10]
        0x00000ea0:    4286        .B      CMP      r6,r0
        0x00000ea2:    dbf3        ..      BLT      0xe8c ; _printf_int_common + 68
        0x00000ea4:    7820         x      LDRB     r0,[r4,#0]
        0x00000ea6:    06c0        ..      LSLS     r0,r0,#27
        0x00000ea8:    d50a        ..      BPL      0xec0 ; _printf_int_common + 120
        0x00000eaa:    4620         F      MOV      r0,r4
        0x00000eac:    f7fff9ae    ....    BL       _printf_pre_padding ; 0x20c
        0x00000eb0:    e006        ..      B        0xec0 ; _printf_int_common + 120
        0x00000eb2:    6862        bh      LDR      r2,[r4,#4]
        0x00000eb4:    68a1        .h      LDR      r1,[r4,#8]
        0x00000eb6:    2030        0       MOVS     r0,#0x30
        0x00000eb8:    4790        .G      BLX      r2
        0x00000eba:    6a20         j      LDR      r0,[r4,#0x20]
        0x00000ebc:    1c40        @.      ADDS     r0,r0,#1
        0x00000ebe:    6220         b      STR      r0,[r4,#0x20]
        0x00000ec0:    4638        8F      MOV      r0,r7
        0x00000ec2:    1e7f        ..      SUBS     r7,r7,#1
        0x00000ec4:    2800        .(      CMP      r0,#0
        0x00000ec6:    dcf4        ..      BGT      0xeb2 ; _printf_int_common + 106
        0x00000ec8:    e007        ..      B        0xeda ; _printf_int_common + 146
        0x00000eca:    9800        ..      LDR      r0,[sp,#0]
        0x00000ecc:    6862        bh      LDR      r2,[r4,#4]
        0x00000ece:    68a1        .h      LDR      r1,[r4,#8]
        0x00000ed0:    5d40        @]      LDRB     r0,[r0,r5]
        0x00000ed2:    4790        .G      BLX      r2
        0x00000ed4:    6a20         j      LDR      r0,[r4,#0x20]
        0x00000ed6:    1c40        @.      ADDS     r0,r0,#1
        0x00000ed8:    6220         b      STR      r0,[r4,#0x20]
        0x00000eda:    4628        (F      MOV      r0,r5
        0x00000edc:    1e6d        m.      SUBS     r5,r5,#1
        0x00000ede:    2800        .(      CMP      r0,#0
        0x00000ee0:    dcf3        ..      BGT      0xeca ; _printf_int_common + 130
        0x00000ee2:    4620         F      MOV      r0,r4
        0x00000ee4:    f7fff9a8    ....    BL       _printf_post_padding ; 0x238
        0x00000ee8:    7820         x      LDRB     r0,[r4,#0]
        0x00000eea:    0600        ..      LSLS     r0,r0,#24
        0x00000eec:    d502        ..      BPL      0xef4 ; _printf_int_common + 172
        0x00000eee:    2002        .       MOVS     r0,#2
        0x00000ef0:    b005        ..      ADD      sp,sp,#0x14
        0x00000ef2:    bdf0        ..      POP      {r4-r7,pc}
        0x00000ef4:    2001        .       MOVS     r0,#1
        0x00000ef6:    e7fb        ..      B        0xef0 ; _printf_int_common + 168
    .text
    _printf_input_char
        0x00000ef8:    6901        .i      LDR      r1,[r0,#0x10]
        0x00000efa:    1c4a        J.      ADDS     r2,r1,#1
        0x00000efc:    6102        .a      STR      r2,[r0,#0x10]
        0x00000efe:    7808        .x      LDRB     r0,[r1,#0]
        0x00000f00:    4770        pG      BX       lr
    _printf_char_common
        0x00000f02:    b500        ..      PUSH     {lr}
        0x00000f04:    b08f        ..      SUB      sp,sp,#0x3c
        0x00000f06:    9102        ..      STR      r1,[sp,#8]
        0x00000f08:    2100        .!      MOVS     r1,#0
        0x00000f0a:    9105        ..      STR      r1,[sp,#0x14]
        0x00000f0c:    4905        .I      LDR      r1,[pc,#20] ; [0xf24] = 0xffffffe5
        0x00000f0e:    9301        ..      STR      r3,[sp,#4]
        0x00000f10:    4479        yD      ADD      r1,r1,pc
        0x00000f12:    9103        ..      STR      r1,[sp,#0xc]
        0x00000f14:    4611        .F      MOV      r1,r2
        0x00000f16:    9004        ..      STR      r0,[sp,#0x10]
        0x00000f18:    4668        hF      MOV      r0,sp
        0x00000f1a:    f7fff9fd    ....    BL       __printf ; 0x318
        0x00000f1e:    b00f        ..      ADD      sp,sp,#0x3c
        0x00000f20:    bd00        ..      POP      {pc}
    $d
        0x00000f22:    0000        ..      DCW    0
        0x00000f24:    ffffffe5    ....    DCD    4294967269
    $t
    .text
    _sputc
        0x00000f28:    680a        .h      LDR      r2,[r1,#0]
        0x00000f2a:    7010        .p      STRB     r0,[r2,#0]
        0x00000f2c:    1c52        R.      ADDS     r2,r2,#1
        0x00000f2e:    600a        .`      STR      r2,[r1,#0]
        0x00000f30:    4770        pG      BX       lr
    .text
    _printf_cs_common
        0x00000f32:    b510        ..      PUSH     {r4,lr}
        0x00000f34:    6943        Ci      LDR      r3,[r0,#0x14]
        0x00000f36:    2b00        .+      CMP      r3,#0
        0x00000f38:    d002        ..      BEQ      0xf40 ; _printf_cs_common + 14
        0x00000f3a:    46c0        .F      MOV      r8,r8
        0x00000f3c:    46c0        .F      MOV      r8,r8
        0x00000f3e:    e001        ..      B        0xf44 ; _printf_cs_common + 18
        0x00000f40:    f7fff98b    ....    BL       _printf_str ; 0x25a
        0x00000f44:    2001        .       MOVS     r0,#1
        0x00000f46:    bd10        ..      POP      {r4,pc}
    _printf_char
        0x00000f48:    7812        .x      LDRB     r2,[r2,#0]
        0x00000f4a:    4601        .F      MOV      r1,r0
        0x00000f4c:    3124        $1      ADDS     r1,r1,#0x24
        0x00000f4e:    700a        .p      STRB     r2,[r1,#0]
        0x00000f50:    2200        ."      MOVS     r2,#0
        0x00000f52:    704a        Jp      STRB     r2,[r1,#1]
        0x00000f54:    2201        ."      MOVS     r2,#1
        0x00000f56:    e7ec        ..      B        _printf_cs_common ; 0xf32
    _printf_string
        0x00000f58:    6811        .h      LDR      r1,[r2,#0]
        0x00000f5a:    2200        ."      MOVS     r2,#0
        0x00000f5c:    43d2        .C      MVNS     r2,r2
        0x00000f5e:    e7e8        ..      B        _printf_cs_common ; 0xf32
    .text
    __rt_udiv10
        0x00000f60:    4601        .F      MOV      r1,r0
        0x00000f62:    0880        ..      LSRS     r0,r0,#2
        0x00000f64:    1a08        ..      SUBS     r0,r1,r0
        0x00000f66:    0902        ..      LSRS     r2,r0,#4
        0x00000f68:    1810        ..      ADDS     r0,r2,r0
        0x00000f6a:    0a02        ..      LSRS     r2,r0,#8
        0x00000f6c:    1810        ..      ADDS     r0,r2,r0
        0x00000f6e:    0c02        ..      LSRS     r2,r0,#16
        0x00000f70:    1810        ..      ADDS     r0,r2,r0
        0x00000f72:    08c0        ..      LSRS     r0,r0,#3
        0x00000f74:    0082        ..      LSLS     r2,r0,#2
        0x00000f76:    1812        ..      ADDS     r2,r2,r0
        0x00000f78:    0052        R.      LSLS     r2,r2,#1
        0x00000f7a:    1a89        ..      SUBS     r1,r1,r2
        0x00000f7c:    e001        ..      B        0xf82 ; __rt_udiv10 + 34
        0x00000f7e:    390a        .9      SUBS     r1,r1,#0xa
        0x00000f80:    1c40        @.      ADDS     r0,r0,#1
        0x00000f82:    290a        .)      CMP      r1,#0xa
        0x00000f84:    d2fb        ..      BCS      0xf7e ; __rt_udiv10 + 30
        0x00000f86:    4770        pG      BX       lr
    .text
    __fpl_dcmp_InfNaN
        0x00000f88:    b5f8        ..      PUSH     {r3-r7,lr}
        0x00000f8a:    4c22        "L      LDR      r4,[pc,#136] ; [0x1014] = 0xffe00000
        0x00000f8c:    004e        N.      LSLS     r6,r1,#1
        0x00000f8e:    9d06        ..      LDR      r5,[sp,#0x18]
        0x00000f90:    42a6        .B      CMP      r6,r4
        0x00000f92:    d80a        ..      BHI      0xfaa ; __fpl_dcmp_InfNaN + 34
        0x00000f94:    42a6        .B      CMP      r6,r4
        0x00000f96:    d101        ..      BNE      0xf9c ; __fpl_dcmp_InfNaN + 20
        0x00000f98:    2800        .(      CMP      r0,#0
        0x00000f9a:    d106        ..      BNE      0xfaa ; __fpl_dcmp_InfNaN + 34
        0x00000f9c:    005e        ^.      LSLS     r6,r3,#1
        0x00000f9e:    42a6        .B      CMP      r6,r4
        0x00000fa0:    d803        ..      BHI      0xfaa ; __fpl_dcmp_InfNaN + 34
        0x00000fa2:    42a6        .B      CMP      r6,r4
        0x00000fa4:    d10a        ..      BNE      0xfbc ; __fpl_dcmp_InfNaN + 52
        0x00000fa6:    2a00        .*      CMP      r2,#0
        0x00000fa8:    d008        ..      BEQ      0xfbc ; __fpl_dcmp_InfNaN + 52
        0x00000faa:    240d        .$      MOVS     r4,#0xd
        0x00000fac:    0424        $.      LSLS     r4,r4,#16
        0x00000fae:    4225        %B      TST      r5,r4
        0x00000fb0:    d02c        ,.      BEQ      0x100c ; __fpl_dcmp_InfNaN + 132
        0x00000fb2:    4629        )F      MOV      r1,r5
        0x00000fb4:    2000        .       MOVS     r0,#0
        0x00000fb6:    f000f8e7    ....    BL       __fpl_cmpreturn ; 0x1188
        0x00000fba:    bdf8        ..      POP      {r3-r7,pc}
        0x00000fbc:    460c        .F      MOV      r4,r1
        0x00000fbe:    431c        .C      ORRS     r4,r4,r3
        0x00000fc0:    d40c        ..      BMI      0xfdc ; __fpl_dcmp_InfNaN + 84
        0x00000fc2:    4299        .B      CMP      r1,r3
        0x00000fc4:    d002        ..      BEQ      0xfcc ; __fpl_dcmp_InfNaN + 68
        0x00000fc6:    f3ef8000    ....    MRS      r0,APSR ; formerly CPSR
        0x00000fca:    bdf8        ..      POP      {r3-r7,pc}
        0x00000fcc:    4290        .B      CMP      r0,r2
        0x00000fce:    d002        ..      BEQ      0xfd6 ; __fpl_dcmp_InfNaN + 78
        0x00000fd0:    f3ef8000    ....    MRS      r0,APSR ; formerly CPSR
        0x00000fd4:    bdf8        ..      POP      {r3-r7,pc}
        0x00000fd6:    f3ef8000    ....    MRS      r0,APSR ; formerly CPSR
        0x00000fda:    bdf8        ..      POP      {r3-r7,pc}
        0x00000fdc:    2409        .$      MOVS     r4,#9
        0x00000fde:    0724        $.      LSLS     r4,r4,#28
        0x00000fe0:    00e5        ..      LSLS     r5,r4,#3
        0x00000fe2:    428b        .B      CMP      r3,r1
        0x00000fe4:    d006        ..      BEQ      0xff4 ; __fpl_dcmp_InfNaN + 108
        0x00000fe6:    f3ef8000    ....    MRS      r0,APSR ; formerly CPSR
        0x00000fea:    43a0        .C      BICS     r0,r0,r4
        0x00000fec:    1a59        Y.      SUBS     r1,r3,r1
        0x00000fee:    d206        ..      BCS      0xffe ; __fpl_dcmp_InfNaN + 118
        0x00000ff0:    4328        (C      ORRS     r0,r0,r5
        0x00000ff2:    e004        ..      B        0xffe ; __fpl_dcmp_InfNaN + 118
        0x00000ff4:    1a10        ..      SUBS     r0,r2,r0
        0x00000ff6:    d305        ..      BCC      0x1004 ; __fpl_dcmp_InfNaN + 124
        0x00000ff8:    f3ef8000    ....    MRS      r0,APSR ; formerly CPSR
        0x00000ffc:    43a0        .C      BICS     r0,r0,r4
        0x00000ffe:    f3808800    ....    MSR      APSR_nzcvq,r0 ; formerly CPSR_f
        0x00001002:    bdf8        ..      POP      {r3-r7,pc}
        0x00001004:    f3ef8000    ....    MRS      r0,APSR ; formerly CPSR
        0x00001008:    43a0        .C      BICS     r0,r0,r4
        0x0000100a:    e7f1        ..      B        0xff0 ; __fpl_dcmp_InfNaN + 104
        0x0000100c:    9500        ..      STR      r5,[sp,#0]
        0x0000100e:    f000f8d3    ....    BL       __fpl_dcheck_NaN2 ; 0x11b8
        0x00001012:    bdf8        ..      POP      {r3-r7,pc}
    $d
        0x00001014:    ffe00000    ....    DCD    4292870144
    $t
    .text
    _dsqrt
        0x00001018:    b5f0        ..      PUSH     {r4-r7,lr}
        0x0000101a:    4602        .F      MOV      r2,r0
        0x0000101c:    4c3d        =L      LDR      r4,[pc,#244] ; [0x1114] = 0x7ff00000
        0x0000101e:    0308        ..      LSLS     r0,r1,#12
        0x00001020:    4613        .F      MOV      r3,r2
        0x00001022:    460d        .F      MOV      r5,r1
        0x00001024:    4303        .C      ORRS     r3,r3,r0
        0x00001026:    4025        %@      ANDS     r5,r5,r4
        0x00001028:    2000        .       MOVS     r0,#0
        0x0000102a:    2d00        .-      CMP      r5,#0
        0x0000102c:    d063        c.      BEQ      0x10f6 ; _dsqrt + 222
        0x0000102e:    4d3a        :M      LDR      r5,[pc,#232] ; [0x1118] = 0x7ff80000
        0x00001030:    438c        .C      BICS     r4,r4,r1
        0x00001032:    d065        e.      BEQ      0x1100 ; _dsqrt + 232
        0x00001034:    2900        .)      CMP      r1,#0
        0x00001036:    db69        i.      BLT      0x110c ; _dsqrt + 244
        0x00001038:    0d0b        ..      LSRS     r3,r1,#20
        0x0000103a:    051d        ..      LSLS     r5,r3,#20
        0x0000103c:    43a9        .C      BICS     r1,r1,r5
        0x0000103e:    2501        .%      MOVS     r5,#1
        0x00001040:    052d        -.      LSLS     r5,r5,#20
        0x00001042:    4329        )C      ORRS     r1,r1,r5
        0x00001044:    33fd        .3      ADDS     r3,r3,#0xfd
        0x00001046:    2401        .$      MOVS     r4,#1
        0x00001048:    40e3        .@      LSRS     r3,r3,r4
        0x0000104a:    d301        ..      BCC      0x1050 ; _dsqrt + 56
        0x0000104c:    1892        ..      ADDS     r2,r2,r2
        0x0000104e:    4149        IA      ADCS     r1,r1,r1
        0x00001050:    33ff        .3      ADDS     r3,r3,#0xff
        0x00001052:    3381        .3      ADDS     r3,r3,#0x81
        0x00001054:    469c        .F      MOV      r12,r3
        0x00001056:    028b        ..      LSLS     r3,r1,#10
        0x00001058:    0d94        ..      LSRS     r4,r2,#22
        0x0000105a:    2101        .!      MOVS     r1,#1
        0x0000105c:    4323        #C      ORRS     r3,r3,r4
        0x0000105e:    0789        ..      LSLS     r1,r1,#30
        0x00001060:    424c        LB      RSBS     r4,r1,#0
        0x00001062:    0292        ..      LSLS     r2,r2,#10
        0x00001064:    2700        .'      MOVS     r7,#0
        0x00001066:    191b        ..      ADDS     r3,r3,r4
        0x00001068:    108c        ..      ASRS     r4,r1,#2
        0x0000106a:    1a5d        ].      SUBS     r5,r3,r1
        0x0000106c:    d404        ..      BMI      0x1078 ; _dsqrt + 96
        0x0000106e:    1b2d        -.      SUBS     r5,r5,r4
        0x00001070:    d402        ..      BMI      0x1078 ; _dsqrt + 96
        0x00001072:    462b        +F      MOV      r3,r5
        0x00001074:    0065        e.      LSLS     r5,r4,#1
        0x00001076:    1949        I.      ADDS     r1,r1,r5
        0x00001078:    1892        ..      ADDS     r2,r2,r2
        0x0000107a:    415b        [A      ADCS     r3,r3,r3
        0x0000107c:    0864        d.      LSRS     r4,r4,#1
        0x0000107e:    d1f4        ..      BNE      0x106a ; _dsqrt + 82
        0x00001080:    1a5c        \.      SUBS     r4,r3,r1
        0x00001082:    d408        ..      BMI      0x1096 ; _dsqrt + 126
        0x00001084:    2501        .%      MOVS     r5,#1
        0x00001086:    07ed        ..      LSLS     r5,r5,#31
        0x00001088:    17ee        ..      ASRS     r6,r5,#31
        0x0000108a:    1955        U.      ADDS     r5,r2,r5
        0x0000108c:    4174        tA      ADCS     r4,r4,r6
        0x0000108e:    d402        ..      BMI      0x1096 ; _dsqrt + 126
        0x00001090:    462a        *F      MOV      r2,r5
        0x00001092:    4623        #F      MOV      r3,r4
        0x00001094:    1c49        I.      ADDS     r1,r1,#1
        0x00001096:    1894        ..      ADDS     r4,r2,r2
        0x00001098:    415b        [A      ADCS     r3,r3,r3
        0x0000109a:    2201        ."      MOVS     r2,#1
        0x0000109c:    0792        ..      LSLS     r2,r2,#30
        0x0000109e:    461d        .F      MOV      r5,r3
        0x000010a0:    1be6        ..      SUBS     r6,r4,r7
        0x000010a2:    418d        .A      SBCS     r5,r5,r1
        0x000010a4:    d406        ..      BMI      0x10b4 ; _dsqrt + 156
        0x000010a6:    1ab6        ..      SUBS     r6,r6,r2
        0x000010a8:    4185        .A      SBCS     r5,r5,r0
        0x000010aa:    d403        ..      BMI      0x10b4 ; _dsqrt + 156
        0x000010ac:    462b        +F      MOV      r3,r5
        0x000010ae:    0055        U.      LSLS     r5,r2,#1
        0x000010b0:    4634        4F      MOV      r4,r6
        0x000010b2:    197f        ..      ADDS     r7,r7,r5
        0x000010b4:    1924        $.      ADDS     r4,r4,r4
        0x000010b6:    415b        [A      ADCS     r3,r3,r3
        0x000010b8:    0852        R.      LSRS     r2,r2,#1
        0x000010ba:    2a80        .*      CMP      r2,#0x80
        0x000010bc:    d1ef        ..      BNE      0x109e ; _dsqrt + 134
        0x000010be:    4323        #C      ORRS     r3,r3,r4
        0x000010c0:    d000        ..      BEQ      0x10c4 ; _dsqrt + 172
        0x000010c2:    2302        .#      MOVS     r3,#2
        0x000010c4:    4638        8F      MOV      r0,r7
        0x000010c6:    220a        ."      MOVS     r2,#0xa
        0x000010c8:    40d0        .@      LSRS     r0,r0,r2
        0x000010ca:    d301        ..      BCC      0x10d0 ; _dsqrt + 184
        0x000010cc:    2201        ."      MOVS     r2,#1
        0x000010ce:    4313        .C      ORRS     r3,r3,r2
        0x000010d0:    058a        ..      LSLS     r2,r1,#22
        0x000010d2:    4310        .C      ORRS     r0,r0,r2
        0x000010d4:    4662        bF      MOV      r2,r12
        0x000010d6:    0a89        ..      LSRS     r1,r1,#10
        0x000010d8:    0512        ..      LSLS     r2,r2,#20
        0x000010da:    1889        ..      ADDS     r1,r1,r2
        0x000010dc:    2b00        .+      CMP      r3,#0
        0x000010de:    d009        ..      BEQ      0x10f4 ; _dsqrt + 220
        0x000010e0:    2201        ."      MOVS     r2,#1
        0x000010e2:    40d3        .@      LSRS     r3,r3,r2
        0x000010e4:    d302        ..      BCC      0x10ec ; _dsqrt + 212
        0x000010e6:    2200        ."      MOVS     r2,#0
        0x000010e8:    1c40        @.      ADDS     r0,r0,#1
        0x000010ea:    4151        QA      ADCS     r1,r1,r2
        0x000010ec:    2b00        .+      CMP      r3,#0
        0x000010ee:    d101        ..      BNE      0x10f4 ; _dsqrt + 220
        0x000010f0:    0840        @.      LSRS     r0,r0,#1
        0x000010f2:    0040        @.      LSLS     r0,r0,#1
        0x000010f4:    bdf0        ..      POP      {r4-r7,pc}
        0x000010f6:    2b00        .+      CMP      r3,#0
        0x000010f8:    d006        ..      BEQ      0x1108 ; _dsqrt + 240
        0x000010fa:    0fc9        ..      LSRS     r1,r1,#31
        0x000010fc:    07c9        ..      LSLS     r1,r1,#31
        0x000010fe:    bdf0        ..      POP      {r4-r7,pc}
        0x00001100:    2b00        .+      CMP      r3,#0
        0x00001102:    d103        ..      BNE      0x110c ; _dsqrt + 244
        0x00001104:    2900        .)      CMP      r1,#0
        0x00001106:    db01        ..      BLT      0x110c ; _dsqrt + 244
        0x00001108:    4610        .F      MOV      r0,r2
        0x0000110a:    bdf0        ..      POP      {r4-r7,pc}
        0x0000110c:    2000        .       MOVS     r0,#0
        0x0000110e:    4629        )F      MOV      r1,r5
        0x00001110:    bdf0        ..      POP      {r4-r7,pc}
    $d
        0x00001112:    0000        ..      DCW    0
        0x00001114:    7ff00000    ....    DCD    2146435072
        0x00001118:    7ff80000    ....    DCD    2146959360
    $t
    .text
    __fpl_fcmp_InfNaN
        0x0000111c:    b510        ..      PUSH     {r4,lr}
        0x0000111e:    23ff        .#      MOVS     r3,#0xff
        0x00001120:    061b        ..      LSLS     r3,r3,#24
        0x00001122:    0044        D.      LSLS     r4,r0,#1
        0x00001124:    429c        .B      CMP      r4,r3
        0x00001126:    d81d        ..      BHI      0x1164 ; __fpl_fcmp_InfNaN + 72
        0x00001128:    004c        L.      LSLS     r4,r1,#1
        0x0000112a:    429c        .B      CMP      r4,r3
        0x0000112c:    d81a        ..      BHI      0x1164 ; __fpl_fcmp_InfNaN + 72
        0x0000112e:    4603        .F      MOV      r3,r0
        0x00001130:    4a12        .J      LDR      r2,[pc,#72] ; [0x117c] = 0x90000000
        0x00001132:    430b        .C      ORRS     r3,r3,r1
        0x00001134:    d407        ..      BMI      0x1146 ; __fpl_fcmp_InfNaN + 42
        0x00001136:    1a40        @.      SUBS     r0,r0,r1
        0x00001138:    d302        ..      BCC      0x1140 ; __fpl_fcmp_InfNaN + 36
        0x0000113a:    f3ef8000    ....    MRS      r0,APSR ; formerly CPSR
        0x0000113e:    bd10        ..      POP      {r4,pc}
        0x00001140:    f3ef8000    ....    MRS      r0,APSR ; formerly CPSR
        0x00001144:    bd10        ..      POP      {r4,pc}
        0x00001146:    1a08        ..      SUBS     r0,r1,r0
        0x00001148:    d206        ..      BCS      0x1158 ; __fpl_fcmp_InfNaN + 60
        0x0000114a:    f3ef8000    ....    MRS      r0,APSR ; formerly CPSR
        0x0000114e:    2101        .!      MOVS     r1,#1
        0x00001150:    4390        .C      BICS     r0,r0,r2
        0x00001152:    07c9        ..      LSLS     r1,r1,#31
        0x00001154:    4308        .C      ORRS     r0,r0,r1
        0x00001156:    e002        ..      B        0x115e ; __fpl_fcmp_InfNaN + 66
        0x00001158:    f3ef8000    ....    MRS      r0,APSR ; formerly CPSR
        0x0000115c:    4390        .C      BICS     r0,r0,r2
        0x0000115e:    f3808800    ....    MSR      APSR_nzcvq,r0 ; formerly CPSR_f
        0x00001162:    bd10        ..      POP      {r4,pc}
        0x00001164:    230d        .#      MOVS     r3,#0xd
        0x00001166:    041b        ..      LSLS     r3,r3,#16
        0x00001168:    421a        .B      TST      r2,r3
        0x0000116a:    d004        ..      BEQ      0x1176 ; __fpl_fcmp_InfNaN + 90
        0x0000116c:    4611        .F      MOV      r1,r2
        0x0000116e:    2000        .       MOVS     r0,#0
        0x00001170:    f000f80a    ....    BL       __fpl_cmpreturn ; 0x1188
        0x00001174:    bd10        ..      POP      {r4,pc}
        0x00001176:    f000f829    ..).    BL       __fpl_fcheck_NaN2 ; 0x11cc
        0x0000117a:    bd10        ..      POP      {r4,pc}
    $d
        0x0000117c:    90000000    ....    DCD    2415919104
    $t
    .text
    __aeabi_errno_addr
    __errno$intlibspace
    __rt_errno_addr$intlibspace
        0x00001180:    4800        .H      LDR      r0,[pc,#0] ; [0x1184] = 0x2000008c
        0x00001182:    4770        pG      BX       lr
    $d
        0x00001184:    2000008c    ...     DCD    536871052
    $t
    .text
    __fpl_cmpreturn
        0x00001188:    02ca        ..      LSLS     r2,r1,#11
        0x0000118a:    d510        ..      BPL      0x11ae ; __fpl_cmpreturn + 38
        0x0000118c:    034a        J.      LSLS     r2,r1,#13
        0x0000118e:    0f52        R.      LSRS     r2,r2,#29
        0x00001190:    d004        ..      BEQ      0x119c ; __fpl_cmpreturn + 20
        0x00001192:    03c8        ..      LSLS     r0,r1,#15
        0x00001194:    43c0        .C      MVNS     r0,r0
        0x00001196:    2101        .!      MOVS     r1,#1
        0x00001198:    4088        .@      LSLS     r0,r0,r1
        0x0000119a:    4770        pG      BX       lr
        0x0000119c:    4a05        .J      LDR      r2,[pc,#20] ; [0x11b4] = 0x30000000
        0x0000119e:    f3ef8100    ....    MRS      r1,APSR ; formerly CPSR
        0x000011a2:    0108        ..      LSLS     r0,r1,#4
        0x000011a4:    0900        ..      LSRS     r0,r0,#4
        0x000011a6:    4310        .C      ORRS     r0,r0,r2
        0x000011a8:    f3808800    ....    MSR      APSR_nzcvq,r0 ; formerly CPSR_f
        0x000011ac:    4770        pG      BX       lr
        0x000011ae:    2000        .       MOVS     r0,#0
        0x000011b0:    4770        pG      BX       lr
    $d
        0x000011b2:    0000        ..      DCW    0
        0x000011b4:    30000000    ...0    DCD    805306368
    $t
    .text
    __fpl_dcheck_NaN2
        0x000011b8:    b510        ..      PUSH     {r4,lr}
        0x000011ba:    2000        .       MOVS     r0,#0
        0x000011bc:    4902        .I      LDR      r1,[pc,#8] ; [0x11c8] = 0x7ff80000
        0x000011be:    9a02        ..      LDR      r2,[sp,#8]
        0x000011c0:    f000f835    ..5.    BL       __fpl_return_NaN ; 0x122e
        0x000011c4:    bd10        ..      POP      {r4,pc}
    $d
        0x000011c6:    0000        ..      DCW    0
        0x000011c8:    7ff80000    ....    DCD    2146959360
    $t
    .text
    __fpl_fcheck_NaN2
        0x000011cc:    b510        ..      PUSH     {r4,lr}
        0x000011ce:    4802        .H      LDR      r0,[pc,#8] ; [0x11d8] = 0x7fc00000
        0x000011d0:    f000f82d    ..-.    BL       __fpl_return_NaN ; 0x122e
        0x000011d4:    bd10        ..      POP      {r4,pc}
    $d
        0x000011d6:    0000        ..      DCW    0
        0x000011d8:    7fc00000    ....    DCD    2143289344
    $t
    .text
    __user_libspace
    __user_perproc_libspace
    __user_perthread_libspace
        0x000011dc:    4800        .H      LDR      r0,[pc,#0] ; [0x11e0] = 0x2000008c
        0x000011de:    4770        pG      BX       lr
    $d
        0x000011e0:    2000008c    ...     DCD    536871052
    $t
    .text
    __user_setup_stackheap
        0x000011e4:    4675        uF      MOV      r5,lr
        0x000011e6:    f7fffff9    ....    BL       __user_libspace ; 0x11dc
        0x000011ea:    46ae        .F      MOV      lr,r5
        0x000011ec:    0005        ..      MOVS     r5,r0
        0x000011ee:    4669        iF      MOV      r1,sp
        0x000011f0:    4653        SF      MOV      r3,r10
        0x000011f2:    08c0        ..      LSRS     r0,r0,#3
        0x000011f4:    00c0        ..      LSLS     r0,r0,#3
        0x000011f6:    4685        .F      MOV      sp,r0
        0x000011f8:    b018        ..      ADD      sp,sp,#0x60
        0x000011fa:    b520         .      PUSH     {r5,lr}
        0x000011fc:    f7feffd6    ....    BL       __user_initial_stackheap ; 0x1ac
        0x00001200:    bc60        `.      POP      {r5,r6}
        0x00001202:    2700        .'      MOVS     r7,#0
        0x00001204:    0849        I.      LSRS     r1,r1,#1
        0x00001206:    46b6        .F      MOV      lr,r6
        0x00001208:    2600        .&      MOVS     r6,#0
        0x0000120a:    c5c0        ..      STM      r5!,{r6,r7}
        0x0000120c:    c5c0        ..      STM      r5!,{r6,r7}
        0x0000120e:    c5c0        ..      STM      r5!,{r6,r7}
        0x00001210:    c5c0        ..      STM      r5!,{r6,r7}
        0x00001212:    c5c0        ..      STM      r5!,{r6,r7}
        0x00001214:    c5c0        ..      STM      r5!,{r6,r7}
        0x00001216:    c5c0        ..      STM      r5!,{r6,r7}
        0x00001218:    c5c0        ..      STM      r5!,{r6,r7}
        0x0000121a:    3d40        @=      SUBS     r5,r5,#0x40
        0x0000121c:    0049        I.      LSLS     r1,r1,#1
        0x0000121e:    468d        .F      MOV      sp,r1
        0x00001220:    4770        pG      BX       lr
    .text
    exit
        0x00001222:    4604        .F      MOV      r4,r0
        0x00001224:    46c0        .F      MOV      r8,r8
        0x00001226:    46c0        .F      MOV      r8,r8
        0x00001228:    4620         F      MOV      r0,r4
        0x0000122a:    f7feffa3    ....    BL       __rt_exit ; 0x174
    .text
    __fpl_return_NaN
        0x0000122e:    b510        ..      PUSH     {r4,lr}
        0x00001230:    460c        .F      MOV      r4,r1
        0x00001232:    0711        ..      LSLS     r1,r2,#28
        0x00001234:    0f09        ..      LSRS     r1,r1,#28
        0x00001236:    2909        .)      CMP      r1,#9
        0x00001238:    d004        ..      BEQ      0x1244 ; __fpl_return_NaN + 22
        0x0000123a:    290a        .)      CMP      r1,#0xa
        0x0000123c:    d00a        ..      BEQ      0x1254 ; __fpl_return_NaN + 38
        0x0000123e:    2908        .)      CMP      r1,#8
        0x00001240:    d10c        ..      BNE      0x125c ; __fpl_return_NaN + 46
        0x00001242:    e004        ..      B        0x124e ; __fpl_return_NaN + 32
        0x00001244:    4611        .F      MOV      r1,r2
        0x00001246:    2008        .       MOVS     r0,#8
        0x00001248:    f7ffff9e    ....    BL       __fpl_cmpreturn ; 0x1188
        0x0000124c:    e006        ..      B        0x125c ; __fpl_return_NaN + 46
        0x0000124e:    0651        Q.      LSLS     r1,r2,#25
        0x00001250:    d506        ..      BPL      0x1260 ; __fpl_return_NaN + 50
        0x00001252:    e001        ..      B        0x1258 ; __fpl_return_NaN + 42
        0x00001254:    0651        Q.      LSLS     r1,r2,#25
        0x00001256:    d501        ..      BPL      0x125c ; __fpl_return_NaN + 46
        0x00001258:    2001        .       MOVS     r0,#1
        0x0000125a:    07c0        ..      LSLS     r0,r0,#31
        0x0000125c:    4621        !F      MOV      r1,r4
        0x0000125e:    bd10        ..      POP      {r4,pc}
        0x00001260:    06d1        ..      LSLS     r1,r2,#27
        0x00001262:    d507        ..      BPL      0x1274 ; __fpl_return_NaN + 70
        0x00001264:    0101        ..      LSLS     r1,r0,#4
        0x00001266:    0909        ..      LSRS     r1,r1,#4
        0x00001268:    08cc        ..      LSRS     r4,r1,#3
        0x0000126a:    0749        I.      LSLS     r1,r1,#29
        0x0000126c:    0e00        ..      LSRS     r0,r0,#24
        0x0000126e:    0600        ..      LSLS     r0,r0,#24
        0x00001270:    4304        .C      ORRS     r4,r4,r0
        0x00001272:    e009        ..      B        0x1288 ; __fpl_return_NaN + 90
        0x00001274:    0f41        A.      LSRS     r1,r0,#29
        0x00001276:    0220         .      LSLS     r0,r4,#8
        0x00001278:    0749        I.      LSLS     r1,r1,#29
        0x0000127a:    0a00        ..      LSRS     r0,r0,#8
        0x0000127c:    4301        .C      ORRS     r1,r1,r0
        0x0000127e:    0e20         .      LSRS     r0,r4,#24
        0x00001280:    0600        ..      LSLS     r0,r0,#24
        0x00001282:    221d        ."      MOVS     r2,#0x1d
        0x00001284:    41d1        .A      RORS     r1,r1,r2
        0x00001286:    4301        .C      ORRS     r1,r1,r0
        0x00001288:    4608        .F      MOV      r0,r1
        0x0000128a:    e7e7        ..      B        0x125c ; __fpl_return_NaN + 46
    .text
    _sys_exit
        0x0000128c:    4901        .I      LDR      r1,[pc,#4] ; [0x1294] = 0x20026
        0x0000128e:    2018        .       MOVS     r0,#0x18
        0x00001290:    beab        ..      BKPT     #0xab
        0x00001292:    e7fe        ..      B        0x1292 ; _sys_exit + 6
    $d
        0x00001294:    00020026    &...    DCD    131110
    $t
    .text
    __I$use$semihosting
    __use_no_semihosting_swi
        0x00001298:    4770        pG      BX       lr
    .text
    __semihosting_library_function
        0x0000129a:    0000        ..      MOVS     r0,r0
    i.ADC_IRQHandler
    ADC_IRQHandler
        0x0000129c:    b510        ..      PUSH     {r4,lr}
        0x0000129e:    4820         H      LDR      r0,[pc,#128] ; [0x1320] = 0x400e0000
        0x000012a0:    6b00        .k      LDR      r0,[r0,#0x30]
        0x000012a2:    07c0        ..      LSLS     r0,r0,#31
        0x000012a4:    0fc0        ..      LSRS     r0,r0,#31
        0x000012a6:    d00f        ..      BEQ      0x12c8 ; ADC_IRQHandler + 44
        0x000012a8:    481e        .H      LDR      r0,[pc,#120] ; [0x1324] = 0x20000050
        0x000012aa:    6800        .h      LDR      r0,[r0,#0]
        0x000012ac:    2800        .(      CMP      r0,#0
        0x000012ae:    d004        ..      BEQ      0x12ba ; ADC_IRQHandler + 30
        0x000012b0:    491d        .I      LDR      r1,[pc,#116] ; [0x1328] = 0x20000080
        0x000012b2:    6808        .h      LDR      r0,[r1,#0]
        0x000012b4:    491b        .I      LDR      r1,[pc,#108] ; [0x1324] = 0x20000050
        0x000012b6:    6809        .h      LDR      r1,[r1,#0]
        0x000012b8:    4788        .G      BLX      r1
        0x000012ba:    4819        .H      LDR      r0,[pc,#100] ; [0x1320] = 0x400e0000
        0x000012bc:    6b00        .k      LDR      r0,[r0,#0x30]
        0x000012be:    08c0        ..      LSRS     r0,r0,#3
        0x000012c0:    00c0        ..      LSLS     r0,r0,#3
        0x000012c2:    1c40        @.      ADDS     r0,r0,#1
        0x000012c4:    4916        .I      LDR      r1,[pc,#88] ; [0x1320] = 0x400e0000
        0x000012c6:    6308        .c      STR      r0,[r1,#0x30]
        0x000012c8:    4815        .H      LDR      r0,[pc,#84] ; [0x1320] = 0x400e0000
        0x000012ca:    6b00        .k      LDR      r0,[r0,#0x30]
        0x000012cc:    0780        ..      LSLS     r0,r0,#30
        0x000012ce:    0fc0        ..      LSRS     r0,r0,#31
        0x000012d0:    d00f        ..      BEQ      0x12f2 ; ADC_IRQHandler + 86
        0x000012d2:    4816        .H      LDR      r0,[pc,#88] ; [0x132c] = 0x20000054
        0x000012d4:    6800        .h      LDR      r0,[r0,#0]
        0x000012d6:    2800        .(      CMP      r0,#0
        0x000012d8:    d004        ..      BEQ      0x12e4 ; ADC_IRQHandler + 72
        0x000012da:    4913        .I      LDR      r1,[pc,#76] ; [0x1328] = 0x20000080
        0x000012dc:    6848        Hh      LDR      r0,[r1,#4]
        0x000012de:    4913        .I      LDR      r1,[pc,#76] ; [0x132c] = 0x20000054
        0x000012e0:    6809        .h      LDR      r1,[r1,#0]
        0x000012e2:    4788        .G      BLX      r1
        0x000012e4:    480e        .H      LDR      r0,[pc,#56] ; [0x1320] = 0x400e0000
        0x000012e6:    6b00        .k      LDR      r0,[r0,#0x30]
        0x000012e8:    08c0        ..      LSRS     r0,r0,#3
        0x000012ea:    00c0        ..      LSLS     r0,r0,#3
        0x000012ec:    1c80        ..      ADDS     r0,r0,#2
        0x000012ee:    490c        .I      LDR      r1,[pc,#48] ; [0x1320] = 0x400e0000
        0x000012f0:    6308        .c      STR      r0,[r1,#0x30]
        0x000012f2:    480b        .H      LDR      r0,[pc,#44] ; [0x1320] = 0x400e0000
        0x000012f4:    6b00        .k      LDR      r0,[r0,#0x30]
        0x000012f6:    0740        @.      LSLS     r0,r0,#29
        0x000012f8:    0fc0        ..      LSRS     r0,r0,#31
        0x000012fa:    d00f        ..      BEQ      0x131c ; ADC_IRQHandler + 128
        0x000012fc:    480c        .H      LDR      r0,[pc,#48] ; [0x1330] = 0x20000058
        0x000012fe:    6800        .h      LDR      r0,[r0,#0]
        0x00001300:    2800        .(      CMP      r0,#0
        0x00001302:    d004        ..      BEQ      0x130e ; ADC_IRQHandler + 114
        0x00001304:    4908        .I      LDR      r1,[pc,#32] ; [0x1328] = 0x20000080
        0x00001306:    6888        .h      LDR      r0,[r1,#8]
        0x00001308:    4909        .I      LDR      r1,[pc,#36] ; [0x1330] = 0x20000058
        0x0000130a:    6809        .h      LDR      r1,[r1,#0]
        0x0000130c:    4788        .G      BLX      r1
        0x0000130e:    4804        .H      LDR      r0,[pc,#16] ; [0x1320] = 0x400e0000
        0x00001310:    6b00        .k      LDR      r0,[r0,#0x30]
        0x00001312:    08c0        ..      LSRS     r0,r0,#3
        0x00001314:    00c0        ..      LSLS     r0,r0,#3
        0x00001316:    1d00        ..      ADDS     r0,r0,#4
        0x00001318:    4901        .I      LDR      r1,[pc,#4] ; [0x1320] = 0x400e0000
        0x0000131a:    6308        .c      STR      r0,[r1,#0x30]
        0x0000131c:    bd10        ..      POP      {r4,pc}
    $d
        0x0000131e:    0000        ..      DCW    0
        0x00001320:    400e0000    ...@    DCD    1074659328
        0x00001324:    20000050    P..     DCD    536870992
        0x00001328:    20000080    ...     DCD    536871040
        0x0000132c:    20000054    T..     DCD    536870996
        0x00001330:    20000058    X..     DCD    536871000
    $t
    i.BOD_IRQHandler
    BOD_IRQHandler
        0x00001334:    b510        ..      PUSH     {r4,lr}
        0x00001336:    2005        .       MOVS     r0,#5
        0x00001338:    0700        ..      LSLS     r0,r0,#28
        0x0000133a:    6980        .i      LDR      r0,[r0,#0x18]
        0x0000133c:    2110        .!      MOVS     r1,#0x10
        0x0000133e:    4388        .C      BICS     r0,r0,r1
        0x00001340:    3010        .0      ADDS     r0,r0,#0x10
        0x00001342:    2105        .!      MOVS     r1,#5
        0x00001344:    0709        ..      LSLS     r1,r1,#28
        0x00001346:    6188        .a      STR      r0,[r1,#0x18]
        0x00001348:    4803        .H      LDR      r0,[pc,#12] ; [0x1358] = 0x2000005c
        0x0000134a:    6800        .h      LDR      r0,[r0,#0]
        0x0000134c:    2800        .(      CMP      r0,#0
        0x0000134e:    d002        ..      BEQ      0x1356 ; BOD_IRQHandler + 34
        0x00001350:    4801        .H      LDR      r0,[pc,#4] ; [0x1358] = 0x2000005c
        0x00001352:    6800        .h      LDR      r0,[r0,#0]
        0x00001354:    4780        .G      BLX      r0
        0x00001356:    bd10        ..      POP      {r4,pc}
    $d
        0x00001358:    2000005c    \..     DCD    536871004
    $t
    i.BaudRateCalculator
    BaudRateCalculator
        0x0000135c:    b5f7        ..      PUSH     {r0-r2,r4-r7,lr}
        0x0000135e:    b082        ..      SUB      sp,sp,#8
        0x00001360:    4617        .F      MOV      r7,r2
        0x00001362:    4831        1H      LDR      r0,[pc,#196] ; [0x1428] = 0x40050000
        0x00001364:    183c        <.      ADDS     r4,r7,r0
        0x00001366:    9903        ..      LDR      r1,[sp,#0xc]
        0x00001368:    9802        ..      LDR      r0,[sp,#8]
        0x0000136a:    f7fff871    ..q.    BL       __aeabi_uidiv ; 0x450
        0x0000136e:    0700        ..      LSLS     r0,r0,#28
        0x00001370:    0f00        ..      LSRS     r0,r0,#28
        0x00001372:    2803        .(      CMP      r0,#3
        0x00001374:    d20f        ..      BCS      0x1396 ; BaudRateCalculator + 58
        0x00001376:    6a60        `j      LDR      r0,[r4,#0x24]
        0x00001378:    2101        .!      MOVS     r1,#1
        0x0000137a:    0749        I.      LSLS     r1,r1,#29
        0x0000137c:    4388        .C      BICS     r0,r0,r1
        0x0000137e:    6260        `b      STR      r0,[r4,#0x24]
        0x00001380:    6a60        `j      LDR      r0,[r4,#0x24]
        0x00001382:    1049        I.      ASRS     r1,r1,#1
        0x00001384:    4388        .C      BICS     r0,r0,r1
        0x00001386:    6260        `b      STR      r0,[r4,#0x24]
        0x00001388:    9903        ..      LDR      r1,[sp,#0xc]
        0x0000138a:    9802        ..      LDR      r0,[sp,#8]
        0x0000138c:    f7fff860    ..`.    BL       __aeabi_uidiv ; 0x450
        0x00001390:    0900        ..      LSRS     r0,r0,#4
        0x00001392:    1e86        ..      SUBS     r6,r0,#2
        0x00001394:    e040        @.      B        0x1418 ; BaudRateCalculator + 188
        0x00001396:    6a60        `j      LDR      r0,[r4,#0x24]
        0x00001398:    2101        .!      MOVS     r1,#1
        0x0000139a:    0749        I.      LSLS     r1,r1,#29
        0x0000139c:    4388        .C      BICS     r0,r0,r1
        0x0000139e:    1840        @.      ADDS     r0,r0,r1
        0x000013a0:    6260        `b      STR      r0,[r4,#0x24]
        0x000013a2:    6a60        `j      LDR      r0,[r4,#0x24]
        0x000013a4:    1049        I.      ASRS     r1,r1,#1
        0x000013a6:    4388        .C      BICS     r0,r0,r1
        0x000013a8:    1840        @.      ADDS     r0,r0,r1
        0x000013aa:    6260        `b      STR      r0,[r4,#0x24]
        0x000013ac:    9903        ..      LDR      r1,[sp,#0xc]
        0x000013ae:    9802        ..      LDR      r0,[sp,#8]
        0x000013b0:    f7fff84e    ..N.    BL       __aeabi_uidiv ; 0x450
        0x000013b4:    1e86        ..      SUBS     r6,r0,#2
        0x000013b6:    481d        .H      LDR      r0,[pc,#116] ; [0x142c] = 0xffff
        0x000013b8:    4286        .B      CMP      r6,r0
        0x000013ba:    dd2d        -.      BLE      0x1418 ; BaudRateCalculator + 188
        0x000013bc:    6a60        `j      LDR      r0,[r4,#0x24]
        0x000013be:    2101        .!      MOVS     r1,#1
        0x000013c0:    0749        I.      LSLS     r1,r1,#29
        0x000013c2:    4388        .C      BICS     r0,r0,r1
        0x000013c4:    1840        @.      ADDS     r0,r0,r1
        0x000013c6:    6260        `b      STR      r0,[r4,#0x24]
        0x000013c8:    6a60        `j      LDR      r0,[r4,#0x24]
        0x000013ca:    1049        I.      ASRS     r1,r1,#1
        0x000013cc:    4388        .C      BICS     r0,r0,r1
        0x000013ce:    6260        `b      STR      r0,[r4,#0x24]
        0x000013d0:    2508        .%      MOVS     r5,#8
        0x000013d2:    e01e        ..      B        0x1412 ; BaudRateCalculator + 182
        0x000013d4:    9903        ..      LDR      r1,[sp,#0xc]
        0x000013d6:    9802        ..      LDR      r0,[sp,#8]
        0x000013d8:    f7fff83a    ..:.    BL       __aeabi_uidiv ; 0x450
        0x000013dc:    1c69        i.      ADDS     r1,r5,#1
        0x000013de:    9001        ..      STR      r0,[sp,#4]
        0x000013e0:    f7fff836    ..6.    BL       __aeabi_uidiv ; 0x450
        0x000013e4:    2903        .)      CMP      r1,#3
        0x000013e6:    d213        ..      BCS      0x1410 ; BaudRateCalculator + 180
        0x000013e8:    6a60        `j      LDR      r0,[r4,#0x24]
        0x000013ea:    210f        .!      MOVS     r1,#0xf
        0x000013ec:    0609        ..      LSLS     r1,r1,#24
        0x000013ee:    4388        .C      BICS     r0,r0,r1
        0x000013f0:    0629        ).      LSLS     r1,r5,#24
        0x000013f2:    220f        ."      MOVS     r2,#0xf
        0x000013f4:    0612        ..      LSLS     r2,r2,#24
        0x000013f6:    4011        .@      ANDS     r1,r1,r2
        0x000013f8:    4308        .C      ORRS     r0,r0,r1
        0x000013fa:    6260        `b      STR      r0,[r4,#0x24]
        0x000013fc:    9903        ..      LDR      r1,[sp,#0xc]
        0x000013fe:    9802        ..      LDR      r0,[sp,#8]
        0x00001400:    f7fff826    ..&.    BL       __aeabi_uidiv ; 0x450
        0x00001404:    1c69        i.      ADDS     r1,r5,#1
        0x00001406:    9001        ..      STR      r0,[sp,#4]
        0x00001408:    f7fff822    ..".    BL       __aeabi_uidiv ; 0x450
        0x0000140c:    1e86        ..      SUBS     r6,r0,#2
        0x0000140e:    e002        ..      B        0x1416 ; BaudRateCalculator + 186
        0x00001410:    1c6d        m.      ADDS     r5,r5,#1
        0x00001412:    2d10        .-      CMP      r5,#0x10
        0x00001414:    dbde        ..      BLT      0x13d4 ; BaudRateCalculator + 120
        0x00001416:    bf00        ..      NOP      
        0x00001418:    6a60        `j      LDR      r0,[r4,#0x24]
        0x0000141a:    0c00        ..      LSRS     r0,r0,#16
        0x0000141c:    0400        ..      LSLS     r0,r0,#16
        0x0000141e:    b2b1        ..      UXTH     r1,r6
        0x00001420:    4308        .C      ORRS     r0,r0,r1
        0x00001422:    6260        `b      STR      r0,[r4,#0x24]
        0x00001424:    b005        ..      ADD      sp,sp,#0x14
        0x00001426:    bdf0        ..      POP      {r4-r7,pc}
    $d
        0x00001428:    40050000    ...@    DCD    1074069504
        0x0000142c:    0000ffff    ....    DCD    65535
    $t
    i.DrvADC_IsConversionDone
    DrvADC_IsConversionDone
        0x00001430:    4803        .H      LDR      r0,[pc,#12] ; [0x1440] = 0x400e0000
        0x00001432:    6b00        .k      LDR      r0,[r0,#0x30]
        0x00001434:    07c0        ..      LSLS     r0,r0,#31
        0x00001436:    0fc0        ..      LSRS     r0,r0,#31
        0x00001438:    d100        ..      BNE      0x143c ; DrvADC_IsConversionDone + 12
        0x0000143a:    4770        pG      BX       lr
        0x0000143c:    2001        .       MOVS     r0,#1
        0x0000143e:    e7fc        ..      B        0x143a ; DrvADC_IsConversionDone + 10
    $d
        0x00001440:    400e0000    ...@    DCD    1074659328
    $t
    i.DrvADC_Open
    DrvADC_Open
        0x00001444:    b5f0        ..      PUSH     {r4-r7,lr}
        0x00001446:    9c05        ..      LDR      r4,[sp,#0x14]
        0x00001448:    2505        .%      MOVS     r5,#5
        0x0000144a:    072d        -.      LSLS     r5,r5,#28
        0x0000144c:    68ed        .h      LDR      r5,[r5,#0xc]
        0x0000144e:    2601        .&      MOVS     r6,#1
        0x00001450:    0736        6.      LSLS     r6,r6,#28
        0x00001452:    43b5        .C      BICS     r5,r5,r6
        0x00001454:    19ad        ..      ADDS     r5,r5,r6
        0x00001456:    2605        .&      MOVS     r6,#5
        0x00001458:    0736        6.      LSLS     r6,r6,#28
        0x0000145a:    60f5        .`      STR      r5,[r6,#0xc]
        0x0000145c:    4635        5F      MOV      r5,r6
        0x0000145e:    68ed        .h      LDR      r5,[r5,#0xc]
        0x00001460:    2601        .&      MOVS     r6,#1
        0x00001462:    0736        6.      LSLS     r6,r6,#28
        0x00001464:    43b5        .C      BICS     r5,r5,r6
        0x00001466:    2605        .&      MOVS     r6,#5
        0x00001468:    0736        6.      LSLS     r6,r6,#28
        0x0000146a:    60f5        .`      STR      r5,[r6,#0xc]
        0x0000146c:    4d2b        +M      LDR      r5,[pc,#172] ; [0x151c] = 0x50000200
        0x0000146e:    696d        mi      LDR      r5,[r5,#0x14]
        0x00001470:    260c        .&      MOVS     r6,#0xc
        0x00001472:    43b5        .C      BICS     r5,r5,r6
        0x00001474:    009e        ..      LSLS     r6,r3,#2
        0x00001476:    270c        .'      MOVS     r7,#0xc
        0x00001478:    403e        >@      ANDS     r6,r6,r7
        0x0000147a:    4335        5C      ORRS     r5,r5,r6
        0x0000147c:    4e27        'N      LDR      r6,[pc,#156] ; [0x151c] = 0x50000200
        0x0000147e:    6175        ua      STR      r5,[r6,#0x14]
        0x00001480:    4635        5F      MOV      r5,r6
        0x00001482:    69ad        .i      LDR      r5,[r5,#0x18]
        0x00001484:    26ff        .&      MOVS     r6,#0xff
        0x00001486:    0436        6.      LSLS     r6,r6,#16
        0x00001488:    43b5        .C      BICS     r5,r5,r6
        0x0000148a:    0426        &.      LSLS     r6,r4,#16
        0x0000148c:    27ff        .'      MOVS     r7,#0xff
        0x0000148e:    043f        ?.      LSLS     r7,r7,#16
        0x00001490:    403e        >@      ANDS     r6,r6,r7
        0x00001492:    4335        5C      ORRS     r5,r5,r6
        0x00001494:    4e21        !N      LDR      r6,[pc,#132] ; [0x151c] = 0x50000200
        0x00001496:    61b5        .a      STR      r5,[r6,#0x18]
        0x00001498:    4635        5F      MOV      r5,r6
        0x0000149a:    68ad        .h      LDR      r5,[r5,#8]
        0x0000149c:    04f6        ..      LSLS     r6,r6,#19
        0x0000149e:    43b5        .C      BICS     r5,r5,r6
        0x000014a0:    19ad        ..      ADDS     r5,r5,r6
        0x000014a2:    4e1e        .N      LDR      r6,[pc,#120] ; [0x151c] = 0x50000200
        0x000014a4:    60b5        .`      STR      r5,[r6,#8]
        0x000014a6:    4d1e        .M      LDR      r5,[pc,#120] ; [0x1520] = 0x400e0000
        0x000014a8:    6a2d        -j      LDR      r5,[r5,#0x20]
        0x000014aa:    086d        m.      LSRS     r5,r5,#1
        0x000014ac:    006d        m.      LSLS     r5,r5,#1
        0x000014ae:    1c6d        m.      ADDS     r5,r5,#1
        0x000014b0:    4e1b        .N      LDR      r6,[pc,#108] ; [0x1520] = 0x400e0000
        0x000014b2:    6235        5b      STR      r5,[r6,#0x20]
        0x000014b4:    2800        .(      CMP      r0,#0
        0x000014b6:    d106        ..      BNE      0x14c6 ; DrvADC_Open + 130
        0x000014b8:    4635        5F      MOV      r5,r6
        0x000014ba:    6a2d        -j      LDR      r5,[r5,#0x20]
        0x000014bc:    1536        6.      ASRS     r6,r6,#20
        0x000014be:    43b5        .C      BICS     r5,r5,r6
        0x000014c0:    4e17        .N      LDR      r6,[pc,#92] ; [0x1520] = 0x400e0000
        0x000014c2:    6235        5b      STR      r5,[r6,#0x20]
        0x000014c4:    e007        ..      B        0x14d6 ; DrvADC_Open + 146
        0x000014c6:    4d16        .M      LDR      r5,[pc,#88] ; [0x1520] = 0x400e0000
        0x000014c8:    6a2d        -j      LDR      r5,[r5,#0x20]
        0x000014ca:    2601        .&      MOVS     r6,#1
        0x000014cc:    02b6        ..      LSLS     r6,r6,#10
        0x000014ce:    43b5        .C      BICS     r5,r5,r6
        0x000014d0:    19ad        ..      ADDS     r5,r5,r6
        0x000014d2:    4e13        .N      LDR      r6,[pc,#76] ; [0x1520] = 0x400e0000
        0x000014d4:    6235        5b      STR      r5,[r6,#0x20]
        0x000014d6:    2900        .)      CMP      r1,#0
        0x000014d8:    d106        ..      BNE      0x14e8 ; DrvADC_Open + 164
        0x000014da:    4d11        .M      LDR      r5,[pc,#68] ; [0x1520] = 0x400e0000
        0x000014dc:    6a2d        -j      LDR      r5,[r5,#0x20]
        0x000014de:    260c        .&      MOVS     r6,#0xc
        0x000014e0:    43b5        .C      BICS     r5,r5,r6
        0x000014e2:    4e0f        .N      LDR      r6,[pc,#60] ; [0x1520] = 0x400e0000
        0x000014e4:    6235        5b      STR      r5,[r6,#0x20]
        0x000014e6:    e010        ..      B        0x150a ; DrvADC_Open + 198
        0x000014e8:    2901        .)      CMP      r1,#1
        0x000014ea:    d107        ..      BNE      0x14fc ; DrvADC_Open + 184
        0x000014ec:    4d0c        .M      LDR      r5,[pc,#48] ; [0x1520] = 0x400e0000
        0x000014ee:    6a2d        -j      LDR      r5,[r5,#0x20]
        0x000014f0:    260c        .&      MOVS     r6,#0xc
        0x000014f2:    43b5        .C      BICS     r5,r5,r6
        0x000014f4:    3508        .5      ADDS     r5,r5,#8
        0x000014f6:    4e0a        .N      LDR      r6,[pc,#40] ; [0x1520] = 0x400e0000
        0x000014f8:    6235        5b      STR      r5,[r6,#0x20]
        0x000014fa:    e006        ..      B        0x150a ; DrvADC_Open + 198
        0x000014fc:    4d08        .M      LDR      r5,[pc,#32] ; [0x1520] = 0x400e0000
        0x000014fe:    6a2d        -j      LDR      r5,[r5,#0x20]
        0x00001500:    260c        .&      MOVS     r6,#0xc
        0x00001502:    43b5        .C      BICS     r5,r5,r6
        0x00001504:    350c        .5      ADDS     r5,r5,#0xc
        0x00001506:    4e06        .N      LDR      r6,[pc,#24] ; [0x1520] = 0x400e0000
        0x00001508:    6235        5b      STR      r5,[r6,#0x20]
        0x0000150a:    4d05        .M      LDR      r5,[pc,#20] ; [0x1520] = 0x400e0000
        0x0000150c:    6a6d        mj      LDR      r5,[r5,#0x24]
        0x0000150e:    0a2d        -.      LSRS     r5,r5,#8
        0x00001510:    022d        -.      LSLS     r5,r5,#8
        0x00001512:    b2d6        ..      UXTB     r6,r2
        0x00001514:    4335        5C      ORRS     r5,r5,r6
        0x00001516:    4e02        .N      LDR      r6,[pc,#8] ; [0x1520] = 0x400e0000
        0x00001518:    6275        ub      STR      r5,[r6,#0x24]
        0x0000151a:    bdf0        ..      POP      {r4-r7,pc}
    $d
        0x0000151c:    50000200    ...P    DCD    1342177792
        0x00001520:    400e0000    ...@    DCD    1074659328
    $t
    i.DrvADC_StartConvert
    DrvADC_StartConvert
        0x00001524:    4807        .H      LDR      r0,[pc,#28] ; [0x1544] = 0x400e0000
        0x00001526:    6b00        .k      LDR      r0,[r0,#0x30]
        0x00001528:    08c0        ..      LSRS     r0,r0,#3
        0x0000152a:    00c0        ..      LSLS     r0,r0,#3
        0x0000152c:    1c40        @.      ADDS     r0,r0,#1
        0x0000152e:    4905        .I      LDR      r1,[pc,#20] ; [0x1544] = 0x400e0000
        0x00001530:    6308        .c      STR      r0,[r1,#0x30]
        0x00001532:    4608        .F      MOV      r0,r1
        0x00001534:    6a00        .j      LDR      r0,[r0,#0x20]
        0x00001536:    2101        .!      MOVS     r1,#1
        0x00001538:    02c9        ..      LSLS     r1,r1,#11
        0x0000153a:    4388        .C      BICS     r0,r0,r1
        0x0000153c:    1840        @.      ADDS     r0,r0,r1
        0x0000153e:    4901        .I      LDR      r1,[pc,#4] ; [0x1544] = 0x400e0000
        0x00001540:    6208        .b      STR      r0,[r1,#0x20]
        0x00001542:    4770        pG      BX       lr
    $d
        0x00001544:    400e0000    ...@    DCD    1074659328
    $t
    i.DrvGPIO_ClrBit
    DrvGPIO_ClrBit
        0x00001548:    b510        ..      PUSH     {r4,lr}
        0x0000154a:    4603        .F      MOV      r3,r0
        0x0000154c:    2900        .)      CMP      r1,#0
        0x0000154e:    db01        ..      BLT      0x1554 ; DrvGPIO_ClrBit + 12
        0x00001550:    2910        .)      CMP      r1,#0x10
        0x00001552:    dd01        ..      BLE      0x1558 ; DrvGPIO_ClrBit + 16
        0x00001554:    4805        .H      LDR      r0,[pc,#20] ; [0x156c] = 0xffff8901
        0x00001556:    bd10        ..      POP      {r4,pc}
        0x00001558:    0198        ..      LSLS     r0,r3,#6
        0x0000155a:    4c05        .L      LDR      r4,[pc,#20] ; [0x1570] = 0x50004000
        0x0000155c:    1902        ..      ADDS     r2,r0,r4
        0x0000155e:    6890        .h      LDR      r0,[r2,#8]
        0x00001560:    2401        .$      MOVS     r4,#1
        0x00001562:    408c        .@      LSLS     r4,r4,r1
        0x00001564:    43a0        .C      BICS     r0,r0,r4
        0x00001566:    6090        .`      STR      r0,[r2,#8]
        0x00001568:    2000        .       MOVS     r0,#0
        0x0000156a:    e7f4        ..      B        0x1556 ; DrvGPIO_ClrBit + 14
    $d
        0x0000156c:    ffff8901    ....    DCD    4294936833
        0x00001570:    50004000    .@.P    DCD    1342193664
    $t
    i.DrvGPIO_GetBit
    DrvGPIO_GetBit
        0x00001574:    b508        ..      PUSH     {r3,lr}
        0x00001576:    4602        .F      MOV      r2,r0
        0x00001578:    2900        .)      CMP      r1,#0
        0x0000157a:    db01        ..      BLT      0x1580 ; DrvGPIO_GetBit + 12
        0x0000157c:    2910        .)      CMP      r1,#0x10
        0x0000157e:    dd01        ..      BLE      0x1584 ; DrvGPIO_GetBit + 16
        0x00001580:    4805        .H      LDR      r0,[pc,#20] ; [0x1598] = 0xffff8901
        0x00001582:    bd08        ..      POP      {r3,pc}
        0x00001584:    0190        ..      LSLS     r0,r2,#6
        0x00001586:    4b05        .K      LDR      r3,[pc,#20] ; [0x159c] = 0x50004010
        0x00001588:    18c0        ..      ADDS     r0,r0,r3
        0x0000158a:    9000        ..      STR      r0,[sp,#0]
        0x0000158c:    9800        ..      LDR      r0,[sp,#0]
        0x0000158e:    6800        .h      LDR      r0,[r0,#0]
        0x00001590:    40c8        .@      LSRS     r0,r0,r1
        0x00001592:    07c0        ..      LSLS     r0,r0,#31
        0x00001594:    0fc0        ..      LSRS     r0,r0,#31
        0x00001596:    e7f4        ..      B        0x1582 ; DrvGPIO_GetBit + 14
    $d
        0x00001598:    ffff8901    ....    DCD    4294936833
        0x0000159c:    50004010    .@.P    DCD    1342193680
    $t
    i.DrvGPIO_InitFunction
    DrvGPIO_InitFunction
        0x000015a0:    b510        ..      PUSH     {r4,lr}
        0x000015a2:    4601        .F      MOV      r1,r0
        0x000015a4:    000b        ..      MOVS     r3,r1
        0x000015a6:    f001fb63    ..c.    BL       __ARM_common_switch8 ; 0x2c70
    $d
        0x000015aa:    203e        >       DCW    8254
        0x000015ac:    5c4b412a    *AK\    DCD    1548435754
        0x000015b0:    947e7d74    t}~.    DCD    2491317620
        0x000015b4:    eff1b4a4    ....    DCD    4025595044
        0x000015b8:    ebecedee    ....    DCD    3958173166
        0x000015bc:    e7e8e9ea    ....    DCD    3890801130
        0x000015c0:    e3e4e5e6    ....    DCD    3823429094
        0x000015c4:    dfe0e1e2    ....    DCD    3756057058
        0x000015c8:    dbdcddde    ....    DCD    3688685022
        0x000015cc:    d7d8d9da    ....    DCD    3621312986
        0x000015d0:    d3d4d5d6    ....    DCD    3553940950
        0x000015d4:    cfd0d1d2    ....    DCD    3486568914
        0x000015d8:    cbcccdce    ....    DCD    3419196878
        0x000015dc:    c7c8c9ca    ....    DCD    3351824842
        0x000015e0:    c3c4c5c6    ....    DCD    3284452806
        0x000015e4:    bfc0c1c2    ....    DCD    3217080770
        0x000015e8:    bdbe        ..      DCW    48574
    $t
        0x000015ea:    2000        .       MOVS     r0,#0
        0x000015ec:    2305        .#      MOVS     r3,#5
        0x000015ee:    071b        ..      LSLS     r3,r3,#28
        0x000015f0:    6318        .c      STR      r0,[r3,#0x30]
        0x000015f2:    6358        Xc      STR      r0,[r3,#0x34]
        0x000015f4:    6398        .c      STR      r0,[r3,#0x38]
        0x000015f6:    63d8        .c      STR      r0,[r3,#0x3c]
        0x000015f8:    4bfa        .K      LDR      r3,[pc,#1000] ; [0x19e4] = 0x50000040
        0x000015fa:    6018        .`      STR      r0,[r3,#0]
        0x000015fc:    e371        q.      B        0x1ce2 ; DrvGPIO_InitFunction + 1858
        0x000015fe:    2005        .       MOVS     r0,#5
        0x00001600:    0700        ..      LSLS     r0,r0,#28
        0x00001602:    6b40        @k      LDR      r0,[r0,#0x34]
        0x00001604:    2301        .#      MOVS     r3,#1
        0x00001606:    031b        ..      LSLS     r3,r3,#12
        0x00001608:    4318        .C      ORRS     r0,r0,r3
        0x0000160a:    2305        .#      MOVS     r3,#5
        0x0000160c:    071b        ..      LSLS     r3,r3,#28
        0x0000160e:    6358        Xc      STR      r0,[r3,#0x34]
        0x00001610:    48f4        .H      LDR      r0,[pc,#976] ; [0x19e4] = 0x50000040
        0x00001612:    6900        .i      LDR      r0,[r0,#0x10]
        0x00001614:    2301        .#      MOVS     r3,#1
        0x00001616:    029b        ..      LSLS     r3,r3,#10
        0x00001618:    4318        .C      ORRS     r0,r0,r3
        0x0000161a:    4bf2        .K      LDR      r3,[pc,#968] ; [0x19e4] = 0x50000040
        0x0000161c:    6118        .a      STR      r0,[r3,#0x10]
        0x0000161e:    4618        .F      MOV      r0,r3
        0x00001620:    6900        .i      LDR      r0,[r0,#0x10]
        0x00001622:    015b        [.      LSLS     r3,r3,#5
        0x00001624:    4398        .C      BICS     r0,r0,r3
        0x00001626:    4bef        .K      LDR      r3,[pc,#956] ; [0x19e4] = 0x50000040
        0x00001628:    6118        .a      STR      r0,[r3,#0x10]
        0x0000162a:    e35a        Z.      B        0x1ce2 ; DrvGPIO_InitFunction + 1858
        0x0000162c:    2005        .       MOVS     r0,#5
        0x0000162e:    0700        ..      LSLS     r0,r0,#28
        0x00001630:    6b00        .k      LDR      r0,[r0,#0x30]
        0x00001632:    2303        .#      MOVS     r3,#3
        0x00001634:    021b        ..      LSLS     r3,r3,#8
        0x00001636:    4318        .C      ORRS     r0,r0,r3
        0x00001638:    2305        .#      MOVS     r3,#5
        0x0000163a:    071b        ..      LSLS     r3,r3,#28
        0x0000163c:    6318        .c      STR      r0,[r3,#0x30]
        0x0000163e:    e350        P.      B        0x1ce2 ; DrvGPIO_InitFunction + 1858
        0x00001640:    2005        .       MOVS     r0,#5
        0x00001642:    0700        ..      LSLS     r0,r0,#28
        0x00001644:    6b00        .k      LDR      r0,[r0,#0x30]
        0x00001646:    2303        .#      MOVS     r3,#3
        0x00001648:    029b        ..      LSLS     r3,r3,#10
        0x0000164a:    4318        .C      ORRS     r0,r0,r3
        0x0000164c:    2305        .#      MOVS     r3,#5
        0x0000164e:    071b        ..      LSLS     r3,r3,#28
        0x00001650:    6318        .c      STR      r0,[r3,#0x30]
        0x00001652:    48e4        .H      LDR      r0,[pc,#912] ; [0x19e4] = 0x50000040
        0x00001654:    6900        .i      LDR      r0,[r0,#0x10]
        0x00001656:    2301        .#      MOVS     r3,#1
        0x00001658:    02db        ..      LSLS     r3,r3,#11
        0x0000165a:    4398        .C      BICS     r0,r0,r3
        0x0000165c:    4be1        .K      LDR      r3,[pc,#900] ; [0x19e4] = 0x50000040
        0x0000165e:    6118        .a      STR      r0,[r3,#0x10]
        0x00001660:    e33f        ?.      B        0x1ce2 ; DrvGPIO_InitFunction + 1858
        0x00001662:    2005        .       MOVS     r0,#5
        0x00001664:    0700        ..      LSLS     r0,r0,#28
        0x00001666:    6b80        .k      LDR      r0,[r0,#0x38]
        0x00001668:    230f        .#      MOVS     r3,#0xf
        0x0000166a:    4318        .C      ORRS     r0,r0,r3
        0x0000166c:    2305        .#      MOVS     r3,#5
        0x0000166e:    071b        ..      LSLS     r3,r3,#28
        0x00001670:    6398        .c      STR      r0,[r3,#0x38]
        0x00001672:    4618        .F      MOV      r0,r3
        0x00001674:    6b00        .k      LDR      r0,[r0,#0x30]
        0x00001676:    2301        .#      MOVS     r3,#1
        0x00001678:    03db        ..      LSLS     r3,r3,#15
        0x0000167a:    4318        .C      ORRS     r0,r0,r3
        0x0000167c:    2305        .#      MOVS     r3,#5
        0x0000167e:    071b        ..      LSLS     r3,r3,#28
        0x00001680:    6318        .c      STR      r0,[r3,#0x30]
        0x00001682:    48d8        .H      LDR      r0,[pc,#864] ; [0x19e4] = 0x50000040
        0x00001684:    6900        .i      LDR      r0,[r0,#0x10]
        0x00001686:    231f        .#      MOVS     r3,#0x1f
        0x00001688:    015b        [.      LSLS     r3,r3,#5
        0x0000168a:    4318        .C      ORRS     r0,r0,r3
        0x0000168c:    4bd5        .K      LDR      r3,[pc,#852] ; [0x19e4] = 0x50000040
        0x0000168e:    6118        .a      STR      r0,[r3,#0x10]
        0x00001690:    e327        '.      B        0x1ce2 ; DrvGPIO_InitFunction + 1858
        0x00001692:    2005        .       MOVS     r0,#5
        0x00001694:    0700        ..      LSLS     r0,r0,#28
        0x00001696:    6bc0        .k      LDR      r0,[r0,#0x3c]
        0x00001698:    23c0        .#      MOVS     r3,#0xc0
        0x0000169a:    4318        .C      ORRS     r0,r0,r3
        0x0000169c:    2305        .#      MOVS     r3,#5
        0x0000169e:    071b        ..      LSLS     r3,r3,#28
        0x000016a0:    63d8        .c      STR      r0,[r3,#0x3c]
        0x000016a2:    e31e        ..      B        0x1ce2 ; DrvGPIO_InitFunction + 1858
        0x000016a4:    bf00        ..      NOP      
        0x000016a6:    2906        .)      CMP      r1,#6
        0x000016a8:    d101        ..      BNE      0x16ae ; DrvGPIO_InitFunction + 270
        0x000016aa:    2206        ."      MOVS     r2,#6
        0x000016ac:    e000        ..      B        0x16b0 ; DrvGPIO_InitFunction + 272
        0x000016ae:    220e        ."      MOVS     r2,#0xe
        0x000016b0:    2005        .       MOVS     r0,#5
        0x000016b2:    0700        ..      LSLS     r0,r0,#28
        0x000016b4:    6b80        .k      LDR      r0,[r0,#0x38]
        0x000016b6:    2303        .#      MOVS     r3,#3
        0x000016b8:    4093        .@      LSLS     r3,r3,r2
        0x000016ba:    4318        .C      ORRS     r0,r0,r3
        0x000016bc:    2305        .#      MOVS     r3,#5
        0x000016be:    071b        ..      LSLS     r3,r3,#28
        0x000016c0:    6398        .c      STR      r0,[r3,#0x38]
        0x000016c2:    48c8        .H      LDR      r0,[pc,#800] ; [0x19e4] = 0x50000040
        0x000016c4:    6900        .i      LDR      r0,[r0,#0x10]
        0x000016c6:    2301        .#      MOVS     r3,#1
        0x000016c8:    02db        ..      LSLS     r3,r3,#11
        0x000016ca:    4398        .C      BICS     r0,r0,r3
        0x000016cc:    4bc5        .K      LDR      r3,[pc,#788] ; [0x19e4] = 0x50000040
        0x000016ce:    6118        .a      STR      r0,[r3,#0x10]
        0x000016d0:    e307        ..      B        0x1ce2 ; DrvGPIO_InitFunction + 1858
        0x000016d2:    2005        .       MOVS     r0,#5
        0x000016d4:    0700        ..      LSLS     r0,r0,#28
        0x000016d6:    6b80        .k      LDR      r0,[r0,#0x38]
        0x000016d8:    230f        .#      MOVS     r3,#0xf
        0x000016da:    4318        .C      ORRS     r0,r0,r3
        0x000016dc:    2305        .#      MOVS     r3,#5
        0x000016de:    071b        ..      LSLS     r3,r3,#28
        0x000016e0:    6398        .c      STR      r0,[r3,#0x38]
        0x000016e2:    48c0        .H      LDR      r0,[pc,#768] ; [0x19e4] = 0x50000040
        0x000016e4:    6900        .i      LDR      r0,[r0,#0x10]
        0x000016e6:    23ff        .#      MOVS     r3,#0xff
        0x000016e8:    33e1        .3      ADDS     r3,r3,#0xe1
        0x000016ea:    4398        .C      BICS     r0,r0,r3
        0x000016ec:    4bbd        .K      LDR      r3,[pc,#756] ; [0x19e4] = 0x50000040
        0x000016ee:    6118        .a      STR      r0,[r3,#0x10]
        0x000016f0:    e2f7        ..      B        0x1ce2 ; DrvGPIO_InitFunction + 1858
        0x000016f2:    2005        .       MOVS     r0,#5
        0x000016f4:    0700        ..      LSLS     r0,r0,#28
        0x000016f6:    6b40        @k      LDR      r0,[r0,#0x34]
        0x000016f8:    2301        .#      MOVS     r3,#1
        0x000016fa:    029b        ..      LSLS     r3,r3,#10
        0x000016fc:    4318        .C      ORRS     r0,r0,r3
        0x000016fe:    2305        .#      MOVS     r3,#5
        0x00001700:    071b        ..      LSLS     r3,r3,#28
        0x00001702:    6358        Xc      STR      r0,[r3,#0x34]
        0x00001704:    48b7        .H      LDR      r0,[pc,#732] ; [0x19e4] = 0x50000040
        0x00001706:    6900        .i      LDR      r0,[r0,#0x10]
        0x00001708:    2301        .#      MOVS     r3,#1
        0x0000170a:    4318        .C      ORRS     r0,r0,r3
        0x0000170c:    4bb5        .K      LDR      r3,[pc,#724] ; [0x19e4] = 0x50000040
        0x0000170e:    6118        .a      STR      r0,[r3,#0x10]
        0x00001710:    e2e7        ..      B        0x1ce2 ; DrvGPIO_InitFunction + 1858
        0x00001712:    2005        .       MOVS     r0,#5
        0x00001714:    0700        ..      LSLS     r0,r0,#28
        0x00001716:    6b80        .k      LDR      r0,[r0,#0x38]
        0x00001718:    2330        0#      MOVS     r3,#0x30
        0x0000171a:    4318        .C      ORRS     r0,r0,r3
        0x0000171c:    2305        .#      MOVS     r3,#5
        0x0000171e:    071b        ..      LSLS     r3,r3,#28
        0x00001720:    6398        .c      STR      r0,[r3,#0x38]
        0x00001722:    e2de        ..      B        0x1ce2 ; DrvGPIO_InitFunction + 1858
        0x00001724:    e2db        ..      B        0x1cde ; DrvGPIO_InitFunction + 1854
        0x00001726:    e264        d.      B        0x1bf2 ; DrvGPIO_InitFunction + 1618
        0x00001728:    e282        ..      B        0x1c30 ; DrvGPIO_InitFunction + 1680
        0x0000172a:    e248        H.      B        0x1bbe ; DrvGPIO_InitFunction + 1566
        0x0000172c:    e246        F.      B        0x1bbc ; DrvGPIO_InitFunction + 1564
        0x0000172e:    e213        ..      B        0x1b58 ; DrvGPIO_InitFunction + 1464
        0x00001730:    e211        ..      B        0x1b56 ; DrvGPIO_InitFunction + 1462
        0x00001732:    e1d9        ..      B        0x1ae8 ; DrvGPIO_InitFunction + 1352
        0x00001734:    e1d7        ..      B        0x1ae6 ; DrvGPIO_InitFunction + 1350
        0x00001736:    e1b7        ..      B        0x1aa8 ; DrvGPIO_InitFunction + 1288
        0x00001738:    e1b5        ..      B        0x1aa6 ; DrvGPIO_InitFunction + 1286
        0x0000173a:    e241        A.      B        0x1bc0 ; DrvGPIO_InitFunction + 1568
        0x0000173c:    e20d        ..      B        0x1b5a ; DrvGPIO_InitFunction + 1466
        0x0000173e:    e1d4        ..      B        0x1aea ; DrvGPIO_InitFunction + 1354
        0x00001740:    e1b3        ..      B        0x1aaa ; DrvGPIO_InitFunction + 1290
        0x00001742:    e1a6        ..      B        0x1a92 ; DrvGPIO_InitFunction + 1266
        0x00001744:    e165        e.      B        0x1a12 ; DrvGPIO_InitFunction + 1138
        0x00001746:    e163        c.      B        0x1a10 ; DrvGPIO_InitFunction + 1136
        0x00001748:    e161        a.      B        0x1a0e ; DrvGPIO_InitFunction + 1134
        0x0000174a:    e15f        _.      B        0x1a0c ; DrvGPIO_InitFunction + 1132
        0x0000174c:    e15d        ].      B        0x1a0a ; DrvGPIO_InitFunction + 1130
        0x0000174e:    e15b        [.      B        0x1a08 ; DrvGPIO_InitFunction + 1128
        0x00001750:    e14a        J.      B        0x19e8 ; DrvGPIO_InitFunction + 1096
        0x00001752:    e137        7.      B        0x19c4 ; DrvGPIO_InitFunction + 1060
        0x00001754:    e129        ).      B        0x19aa ; DrvGPIO_InitFunction + 1034
        0x00001756:    e117        ..      B        0x1988 ; DrvGPIO_InitFunction + 1000
        0x00001758:    e106        ..      B        0x1968 ; DrvGPIO_InitFunction + 968
        0x0000175a:    e0f5        ..      B        0x1948 ; DrvGPIO_InitFunction + 936
        0x0000175c:    e0e4        ..      B        0x1928 ; DrvGPIO_InitFunction + 904
        0x0000175e:    e0d9        ..      B        0x1914 ; DrvGPIO_InitFunction + 884
        0x00001760:    e0cc        ..      B        0x18fc ; DrvGPIO_InitFunction + 860
        0x00001762:    e0c4        ..      B        0x18ee ; DrvGPIO_InitFunction + 846
        0x00001764:    e0a3        ..      B        0x18ae ; DrvGPIO_InitFunction + 782
        0x00001766:    e0ae        ..      B        0x18c6 ; DrvGPIO_InitFunction + 806
        0x00001768:    e0ac        ..      B        0x18c4 ; DrvGPIO_InitFunction + 804
        0x0000176a:    e0aa        ..      B        0x18c2 ; DrvGPIO_InitFunction + 802
        0x0000176c:    e0a8        ..      B        0x18c0 ; DrvGPIO_InitFunction + 800
        0x0000176e:    e0a6        ..      B        0x18be ; DrvGPIO_InitFunction + 798
        0x00001770:    e0a4        ..      B        0x18bc ; DrvGPIO_InitFunction + 796
        0x00001772:    e0b0        ..      B        0x18d6 ; DrvGPIO_InitFunction + 822
        0x00001774:    e092        ..      B        0x189c ; DrvGPIO_InitFunction + 764
        0x00001776:    e088        ..      B        0x188a ; DrvGPIO_InitFunction + 746
        0x00001778:    e07e        ~.      B        0x1878 ; DrvGPIO_InitFunction + 728
        0x0000177a:    e073        s.      B        0x1864 ; DrvGPIO_InitFunction + 708
        0x0000177c:    e062        b.      B        0x1844 ; DrvGPIO_InitFunction + 676
        0x0000177e:    e057        W.      B        0x1830 ; DrvGPIO_InitFunction + 656
        0x00001780:    e04d        M.      B        0x181e ; DrvGPIO_InitFunction + 638
        0x00001782:    e037        7.      B        0x17f4 ; DrvGPIO_InitFunction + 596
        0x00001784:    e02d        -.      B        0x17e2 ; DrvGPIO_InitFunction + 578
        0x00001786:    e022        ".      B        0x17ce ; DrvGPIO_InitFunction + 558
        0x00001788:    e011        ..      B        0x17ae ; DrvGPIO_InitFunction + 526
        0x0000178a:    e7ff        ..      B        0x178c ; DrvGPIO_InitFunction + 492
        0x0000178c:    2005        .       MOVS     r0,#5
        0x0000178e:    0700        ..      LSLS     r0,r0,#28
        0x00001790:    6b80        .k      LDR      r0,[r0,#0x38]
        0x00001792:    230f        .#      MOVS     r3,#0xf
        0x00001794:    021b        ..      LSLS     r3,r3,#8
        0x00001796:    4318        .C      ORRS     r0,r0,r3
        0x00001798:    2305        .#      MOVS     r3,#5
        0x0000179a:    071b        ..      LSLS     r3,r3,#28
        0x0000179c:    6398        .c      STR      r0,[r3,#0x38]
        0x0000179e:    4891        .H      LDR      r0,[pc,#580] ; [0x19e4] = 0x50000040
        0x000017a0:    6900        .i      LDR      r0,[r0,#0x10]
        0x000017a2:    2301        .#      MOVS     r3,#1
        0x000017a4:    02db        ..      LSLS     r3,r3,#11
        0x000017a6:    4398        .C      BICS     r0,r0,r3
        0x000017a8:    4b8e        .K      LDR      r3,[pc,#568] ; [0x19e4] = 0x50000040
        0x000017aa:    6118        .a      STR      r0,[r3,#0x10]
        0x000017ac:    e299        ..      B        0x1ce2 ; DrvGPIO_InitFunction + 1858
        0x000017ae:    2005        .       MOVS     r0,#5
        0x000017b0:    0700        ..      LSLS     r0,r0,#28
        0x000017b2:    6b40        @k      LDR      r0,[r0,#0x34]
        0x000017b4:    2301        .#      MOVS     r3,#1
        0x000017b6:    025b        [.      LSLS     r3,r3,#9
        0x000017b8:    4318        .C      ORRS     r0,r0,r3
        0x000017ba:    2305        .#      MOVS     r3,#5
        0x000017bc:    071b        ..      LSLS     r3,r3,#28
        0x000017be:    6358        Xc      STR      r0,[r3,#0x34]
        0x000017c0:    4888        .H      LDR      r0,[pc,#544] ; [0x19e4] = 0x50000040
        0x000017c2:    6900        .i      LDR      r0,[r0,#0x10]
        0x000017c4:    2302        .#      MOVS     r3,#2
        0x000017c6:    4318        .C      ORRS     r0,r0,r3
        0x000017c8:    4b86        .K      LDR      r3,[pc,#536] ; [0x19e4] = 0x50000040
        0x000017ca:    6118        .a      STR      r0,[r3,#0x10]
        0x000017cc:    e289        ..      B        0x1ce2 ; DrvGPIO_InitFunction + 1858
        0x000017ce:    2005        .       MOVS     r0,#5
        0x000017d0:    0700        ..      LSLS     r0,r0,#28
        0x000017d2:    6b80        .k      LDR      r0,[r0,#0x38]
        0x000017d4:    2303        .#      MOVS     r3,#3
        0x000017d6:    031b        ..      LSLS     r3,r3,#12
        0x000017d8:    4318        .C      ORRS     r0,r0,r3
        0x000017da:    2305        .#      MOVS     r3,#5
        0x000017dc:    071b        ..      LSLS     r3,r3,#28
        0x000017de:    6398        .c      STR      r0,[r3,#0x38]
        0x000017e0:    e27f        ..      B        0x1ce2 ; DrvGPIO_InitFunction + 1858
        0x000017e2:    2005        .       MOVS     r0,#5
        0x000017e4:    0700        ..      LSLS     r0,r0,#28
        0x000017e6:    6bc0        .k      LDR      r0,[r0,#0x3c]
        0x000017e8:    230f        .#      MOVS     r3,#0xf
        0x000017ea:    4318        .C      ORRS     r0,r0,r3
        0x000017ec:    2305        .#      MOVS     r3,#5
        0x000017ee:    071b        ..      LSLS     r3,r3,#28
        0x000017f0:    63d8        .c      STR      r0,[r3,#0x3c]
        0x000017f2:    e276        v.      B        0x1ce2 ; DrvGPIO_InitFunction + 1858
        0x000017f4:    2005        .       MOVS     r0,#5
        0x000017f6:    0700        ..      LSLS     r0,r0,#28
        0x000017f8:    6b00        .k      LDR      r0,[r0,#0x30]
        0x000017fa:    2380        .#      MOVS     r3,#0x80
        0x000017fc:    4318        .C      ORRS     r0,r0,r3
        0x000017fe:    2305        .#      MOVS     r3,#5
        0x00001800:    071b        ..      LSLS     r3,r3,#28
        0x00001802:    6318        .c      STR      r0,[r3,#0x30]
        0x00001804:    4877        wH      LDR      r0,[pc,#476] ; [0x19e4] = 0x50000040
        0x00001806:    6900        .i      LDR      r0,[r0,#0x10]
        0x00001808:    2304        .#      MOVS     r3,#4
        0x0000180a:    4318        .C      ORRS     r0,r0,r3
        0x0000180c:    4b75        uK      LDR      r3,[pc,#468] ; [0x19e4] = 0x50000040
        0x0000180e:    6118        .a      STR      r0,[r3,#0x10]
        0x00001810:    4618        .F      MOV      r0,r3
        0x00001812:    6900        .i      LDR      r0,[r0,#0x10]
        0x00001814:    015b        [.      LSLS     r3,r3,#5
        0x00001816:    4398        .C      BICS     r0,r0,r3
        0x00001818:    4b72        rK      LDR      r3,[pc,#456] ; [0x19e4] = 0x50000040
        0x0000181a:    6118        .a      STR      r0,[r3,#0x10]
        0x0000181c:    e261        a.      B        0x1ce2 ; DrvGPIO_InitFunction + 1858
        0x0000181e:    2005        .       MOVS     r0,#5
        0x00001820:    0700        ..      LSLS     r0,r0,#28
        0x00001822:    6bc0        .k      LDR      r0,[r0,#0x3c]
        0x00001824:    2330        0#      MOVS     r3,#0x30
        0x00001826:    4318        .C      ORRS     r0,r0,r3
        0x00001828:    2305        .#      MOVS     r3,#5
        0x0000182a:    071b        ..      LSLS     r3,r3,#28
        0x0000182c:    63d8        .c      STR      r0,[r3,#0x3c]
        0x0000182e:    e258        X.      B        0x1ce2 ; DrvGPIO_InitFunction + 1858
        0x00001830:    2005        .       MOVS     r0,#5
        0x00001832:    0700        ..      LSLS     r0,r0,#28
        0x00001834:    6bc0        .k      LDR      r0,[r0,#0x3c]
        0x00001836:    230f        .#      MOVS     r3,#0xf
        0x00001838:    021b        ..      LSLS     r3,r3,#8
        0x0000183a:    4318        .C      ORRS     r0,r0,r3
        0x0000183c:    2305        .#      MOVS     r3,#5
        0x0000183e:    071b        ..      LSLS     r3,r3,#28
        0x00001840:    63d8        .c      STR      r0,[r3,#0x3c]
        0x00001842:    e24e        N.      B        0x1ce2 ; DrvGPIO_InitFunction + 1858
        0x00001844:    2005        .       MOVS     r0,#5
        0x00001846:    0700        ..      LSLS     r0,r0,#28
        0x00001848:    6b40        @k      LDR      r0,[r0,#0x34]
        0x0000184a:    2301        .#      MOVS     r3,#1
        0x0000184c:    039b        ..      LSLS     r3,r3,#14
        0x0000184e:    4318        .C      ORRS     r0,r0,r3
        0x00001850:    2305        .#      MOVS     r3,#5
        0x00001852:    071b        ..      LSLS     r3,r3,#28
        0x00001854:    6358        Xc      STR      r0,[r3,#0x34]
        0x00001856:    4863        cH      LDR      r0,[pc,#396] ; [0x19e4] = 0x50000040
        0x00001858:    6900        .i      LDR      r0,[r0,#0x10]
        0x0000185a:    2308        .#      MOVS     r3,#8
        0x0000185c:    4318        .C      ORRS     r0,r0,r3
        0x0000185e:    4b61        aK      LDR      r3,[pc,#388] ; [0x19e4] = 0x50000040
        0x00001860:    6118        .a      STR      r0,[r3,#0x10]
        0x00001862:    e23e        >.      B        0x1ce2 ; DrvGPIO_InitFunction + 1858
        0x00001864:    2005        .       MOVS     r0,#5
        0x00001866:    0700        ..      LSLS     r0,r0,#28
        0x00001868:    6bc0        .k      LDR      r0,[r0,#0x3c]
        0x0000186a:    2303        .#      MOVS     r3,#3
        0x0000186c:    031b        ..      LSLS     r3,r3,#12
        0x0000186e:    4318        .C      ORRS     r0,r0,r3
        0x00001870:    2305        .#      MOVS     r3,#5
        0x00001872:    071b        ..      LSLS     r3,r3,#28
        0x00001874:    63d8        .c      STR      r0,[r3,#0x3c]
        0x00001876:    e234        4.      B        0x1ce2 ; DrvGPIO_InitFunction + 1858
        0x00001878:    2005        .       MOVS     r0,#5
        0x0000187a:    0700        ..      LSLS     r0,r0,#28
        0x0000187c:    6b80        .k      LDR      r0,[r0,#0x38]
        0x0000187e:    230f        .#      MOVS     r3,#0xf
        0x00001880:    4318        .C      ORRS     r0,r0,r3
        0x00001882:    2305        .#      MOVS     r3,#5
        0x00001884:    071b        ..      LSLS     r3,r3,#28
        0x00001886:    6398        .c      STR      r0,[r3,#0x38]
        0x00001888:    e22b        +.      B        0x1ce2 ; DrvGPIO_InitFunction + 1858
        0x0000188a:    2005        .       MOVS     r0,#5
        0x0000188c:    0700        ..      LSLS     r0,r0,#28
        0x0000188e:    6bc0        .k      LDR      r0,[r0,#0x3c]
        0x00001890:    2302        .#      MOVS     r3,#2
        0x00001892:    4318        .C      ORRS     r0,r0,r3
        0x00001894:    2305        .#      MOVS     r3,#5
        0x00001896:    071b        ..      LSLS     r3,r3,#28
        0x00001898:    63d8        .c      STR      r0,[r3,#0x3c]
        0x0000189a:    e222        ".      B        0x1ce2 ; DrvGPIO_InitFunction + 1858
        0x0000189c:    2005        .       MOVS     r0,#5
        0x0000189e:    0700        ..      LSLS     r0,r0,#28
        0x000018a0:    6bc0        .k      LDR      r0,[r0,#0x3c]
        0x000018a2:    2304        .#      MOVS     r3,#4
        0x000018a4:    4318        .C      ORRS     r0,r0,r3
        0x000018a6:    2305        .#      MOVS     r3,#5
        0x000018a8:    071b        ..      LSLS     r3,r3,#28
        0x000018aa:    63d8        .c      STR      r0,[r3,#0x3c]
        0x000018ac:    e219        ..      B        0x1ce2 ; DrvGPIO_InitFunction + 1858
        0x000018ae:    484d        MH      LDR      r0,[pc,#308] ; [0x19e4] = 0x50000040
        0x000018b0:    6900        .i      LDR      r0,[r0,#0x10]
        0x000018b2:    2304        .#      MOVS     r3,#4
        0x000018b4:    4398        .C      BICS     r0,r0,r3
        0x000018b6:    4b4b        KK      LDR      r3,[pc,#300] ; [0x19e4] = 0x50000040
        0x000018b8:    6118        .a      STR      r0,[r3,#0x10]
        0x000018ba:    bf00        ..      NOP      
        0x000018bc:    bf00        ..      NOP      
        0x000018be:    bf00        ..      NOP      
        0x000018c0:    bf00        ..      NOP      
        0x000018c2:    bf00        ..      NOP      
        0x000018c4:    bf00        ..      NOP      
        0x000018c6:    4847        GH      LDR      r0,[pc,#284] ; [0x19e4] = 0x50000040
        0x000018c8:    6900        .i      LDR      r0,[r0,#0x10]
        0x000018ca:    2301        .#      MOVS     r3,#1
        0x000018cc:    02db        ..      LSLS     r3,r3,#11
        0x000018ce:    4398        .C      BICS     r0,r0,r3
        0x000018d0:    4b44        DK      LDR      r3,[pc,#272] ; [0x19e4] = 0x50000040
        0x000018d2:    6118        .a      STR      r0,[r3,#0x10]
        0x000018d4:    bf00        ..      NOP      
        0x000018d6:    2005        .       MOVS     r0,#5
        0x000018d8:    0700        ..      LSLS     r0,r0,#28
        0x000018da:    6b00        .k      LDR      r0,[r0,#0x30]
        0x000018dc:    460b        .F      MOV      r3,r1
        0x000018de:    3b17        .;      SUBS     r3,r3,#0x17
        0x000018e0:    2401        .$      MOVS     r4,#1
        0x000018e2:    409c        .@      LSLS     r4,r4,r3
        0x000018e4:    4320         C      ORRS     r0,r0,r4
        0x000018e6:    2305        .#      MOVS     r3,#5
        0x000018e8:    071b        ..      LSLS     r3,r3,#28
        0x000018ea:    6318        .c      STR      r0,[r3,#0x30]
        0x000018ec:    e1f9        ..      B        0x1ce2 ; DrvGPIO_InitFunction + 1858
        0x000018ee:    483d        =H      LDR      r0,[pc,#244] ; [0x19e4] = 0x50000040
        0x000018f0:    6900        .i      LDR      r0,[r0,#0x10]
        0x000018f2:    2308        .#      MOVS     r3,#8
        0x000018f4:    4398        .C      BICS     r0,r0,r3
        0x000018f6:    4b3b        ;K      LDR      r3,[pc,#236] ; [0x19e4] = 0x50000040
        0x000018f8:    6118        .a      STR      r0,[r3,#0x10]
        0x000018fa:    bf00        ..      NOP      
        0x000018fc:    2005        .       MOVS     r0,#5
        0x000018fe:    0700        ..      LSLS     r0,r0,#28
        0x00001900:    6b43        Ck      LDR      r3,[r0,#0x34]
        0x00001902:    4608        .F      MOV      r0,r1
        0x00001904:    3811        .8      SUBS     r0,r0,#0x11
        0x00001906:    2401        .$      MOVS     r4,#1
        0x00001908:    4084        .@      LSLS     r4,r4,r0
        0x0000190a:    4323        #C      ORRS     r3,r3,r4
        0x0000190c:    2005        .       MOVS     r0,#5
        0x0000190e:    0700        ..      LSLS     r0,r0,#28
        0x00001910:    6343        Cc      STR      r3,[r0,#0x34]
        0x00001912:    e1e6        ..      B        0x1ce2 ; DrvGPIO_InitFunction + 1858
        0x00001914:    2005        .       MOVS     r0,#5
        0x00001916:    0700        ..      LSLS     r0,r0,#28
        0x00001918:    6b40        @k      LDR      r0,[r0,#0x34]
        0x0000191a:    23ff        .#      MOVS     r3,#0xff
        0x0000191c:    3301        .3      ADDS     r3,#1
        0x0000191e:    4318        .C      ORRS     r0,r0,r3
        0x00001920:    2305        .#      MOVS     r3,#5
        0x00001922:    071b        ..      LSLS     r3,r3,#28
        0x00001924:    6358        Xc      STR      r0,[r3,#0x34]
        0x00001926:    e1dc        ..      B        0x1ce2 ; DrvGPIO_InitFunction + 1858
        0x00001928:    2005        .       MOVS     r0,#5
        0x0000192a:    0700        ..      LSLS     r0,r0,#28
        0x0000192c:    6b40        @k      LDR      r0,[r0,#0x34]
        0x0000192e:    2301        .#      MOVS     r3,#1
        0x00001930:    025b        [.      LSLS     r3,r3,#9
        0x00001932:    4318        .C      ORRS     r0,r0,r3
        0x00001934:    2305        .#      MOVS     r3,#5
        0x00001936:    071b        ..      LSLS     r3,r3,#28
        0x00001938:    6358        Xc      STR      r0,[r3,#0x34]
        0x0000193a:    482a        *H      LDR      r0,[pc,#168] ; [0x19e4] = 0x50000040
        0x0000193c:    6900        .i      LDR      r0,[r0,#0x10]
        0x0000193e:    2302        .#      MOVS     r3,#2
        0x00001940:    4398        .C      BICS     r0,r0,r3
        0x00001942:    4b28        (K      LDR      r3,[pc,#160] ; [0x19e4] = 0x50000040
        0x00001944:    6118        .a      STR      r0,[r3,#0x10]
        0x00001946:    e1cc        ..      B        0x1ce2 ; DrvGPIO_InitFunction + 1858
        0x00001948:    2005        .       MOVS     r0,#5
        0x0000194a:    0700        ..      LSLS     r0,r0,#28
        0x0000194c:    6b40        @k      LDR      r0,[r0,#0x34]
        0x0000194e:    2301        .#      MOVS     r3,#1
        0x00001950:    029b        ..      LSLS     r3,r3,#10
        0x00001952:    4318        .C      ORRS     r0,r0,r3
        0x00001954:    2305        .#      MOVS     r3,#5
        0x00001956:    071b        ..      LSLS     r3,r3,#28
        0x00001958:    6358        Xc      STR      r0,[r3,#0x34]
        0x0000195a:    4822        "H      LDR      r0,[pc,#136] ; [0x19e4] = 0x50000040
        0x0000195c:    6900        .i      LDR      r0,[r0,#0x10]
        0x0000195e:    0840        @.      LSRS     r0,r0,#1
        0x00001960:    0040        @.      LSLS     r0,r0,#1
        0x00001962:    4b20         K      LDR      r3,[pc,#128] ; [0x19e4] = 0x50000040
        0x00001964:    6118        .a      STR      r0,[r3,#0x10]
        0x00001966:    e1bc        ..      B        0x1ce2 ; DrvGPIO_InitFunction + 1858
        0x00001968:    2005        .       MOVS     r0,#5
        0x0000196a:    0700        ..      LSLS     r0,r0,#28
        0x0000196c:    6b40        @k      LDR      r0,[r0,#0x34]
        0x0000196e:    2301        .#      MOVS     r3,#1
        0x00001970:    02db        ..      LSLS     r3,r3,#11
        0x00001972:    4318        .C      ORRS     r0,r0,r3
        0x00001974:    2305        .#      MOVS     r3,#5
        0x00001976:    071b        ..      LSLS     r3,r3,#28
        0x00001978:    6358        Xc      STR      r0,[r3,#0x34]
        0x0000197a:    481a        .H      LDR      r0,[pc,#104] ; [0x19e4] = 0x50000040
        0x0000197c:    6900        .i      LDR      r0,[r0,#0x10]
        0x0000197e:    2310        .#      MOVS     r3,#0x10
        0x00001980:    4398        .C      BICS     r0,r0,r3
        0x00001982:    4b18        .K      LDR      r3,[pc,#96] ; [0x19e4] = 0x50000040
        0x00001984:    6118        .a      STR      r0,[r3,#0x10]
        0x00001986:    e1ac        ..      B        0x1ce2 ; DrvGPIO_InitFunction + 1858
        0x00001988:    2005        .       MOVS     r0,#5
        0x0000198a:    0700        ..      LSLS     r0,r0,#28
        0x0000198c:    6b40        @k      LDR      r0,[r0,#0x34]
        0x0000198e:    2301        .#      MOVS     r3,#1
        0x00001990:    03db        ..      LSLS     r3,r3,#15
        0x00001992:    4318        .C      ORRS     r0,r0,r3
        0x00001994:    2305        .#      MOVS     r3,#5
        0x00001996:    071b        ..      LSLS     r3,r3,#28
        0x00001998:    6358        Xc      STR      r0,[r3,#0x34]
        0x0000199a:    4812        .H      LDR      r0,[pc,#72] ; [0x19e4] = 0x50000040
        0x0000199c:    6900        .i      LDR      r0,[r0,#0x10]
        0x0000199e:    2301        .#      MOVS     r3,#1
        0x000019a0:    061b        ..      LSLS     r3,r3,#24
        0x000019a2:    4318        .C      ORRS     r0,r0,r3
        0x000019a4:    4b0f        .K      LDR      r3,[pc,#60] ; [0x19e4] = 0x50000040
        0x000019a6:    6118        .a      STR      r0,[r3,#0x10]
        0x000019a8:    e19b        ..      B        0x1ce2 ; DrvGPIO_InitFunction + 1858
        0x000019aa:    480e        .H      LDR      r0,[pc,#56] ; [0x19e4] = 0x50000040
        0x000019ac:    6800        .h      LDR      r0,[r0,#0]
        0x000019ae:    2320         #      MOVS     r3,#0x20
        0x000019b0:    4318        .C      ORRS     r0,r0,r3
        0x000019b2:    4b0c        .K      LDR      r3,[pc,#48] ; [0x19e4] = 0x50000040
        0x000019b4:    6018        .`      STR      r0,[r3,#0]
        0x000019b6:    4618        .F      MOV      r0,r3
        0x000019b8:    6900        .i      LDR      r0,[r0,#0x10]
        0x000019ba:    04db        ..      LSLS     r3,r3,#19
        0x000019bc:    4318        .C      ORRS     r0,r0,r3
        0x000019be:    4b09        .K      LDR      r3,[pc,#36] ; [0x19e4] = 0x50000040
        0x000019c0:    6118        .a      STR      r0,[r3,#0x10]
        0x000019c2:    e18e        ..      B        0x1ce2 ; DrvGPIO_InitFunction + 1858
        0x000019c4:    2005        .       MOVS     r0,#5
        0x000019c6:    0700        ..      LSLS     r0,r0,#28
        0x000019c8:    6b40        @k      LDR      r0,[r0,#0x34]
        0x000019ca:    2304        .#      MOVS     r3,#4
        0x000019cc:    4318        .C      ORRS     r0,r0,r3
        0x000019ce:    2305        .#      MOVS     r3,#5
        0x000019d0:    071b        ..      LSLS     r3,r3,#28
        0x000019d2:    6358        Xc      STR      r0,[r3,#0x34]
        0x000019d4:    4803        .H      LDR      r0,[pc,#12] ; [0x19e4] = 0x50000040
        0x000019d6:    6900        .i      LDR      r0,[r0,#0x10]
        0x000019d8:    2301        .#      MOVS     r3,#1
        0x000019da:    069b        ..      LSLS     r3,r3,#26
        0x000019dc:    4318        .C      ORRS     r0,r0,r3
        0x000019de:    4b01        .K      LDR      r3,[pc,#4] ; [0x19e4] = 0x50000040
        0x000019e0:    6118        .a      STR      r0,[r3,#0x10]
        0x000019e2:    e17e        ~.      B        0x1ce2 ; DrvGPIO_InitFunction + 1858
    $d
        0x000019e4:    50000040    @..P    DCD    1342177344
    $t
        0x000019e8:    2005        .       MOVS     r0,#5
        0x000019ea:    0700        ..      LSLS     r0,r0,#28
        0x000019ec:    6b40        @k      LDR      r0,[r0,#0x34]
        0x000019ee:    2308        .#      MOVS     r3,#8
        0x000019f0:    4318        .C      ORRS     r0,r0,r3
        0x000019f2:    2305        .#      MOVS     r3,#5
        0x000019f4:    071b        ..      LSLS     r3,r3,#28
        0x000019f6:    6358        Xc      STR      r0,[r3,#0x34]
        0x000019f8:    48bb        .H      LDR      r0,[pc,#748] ; [0x1ce8] = 0x50000040
        0x000019fa:    6900        .i      LDR      r0,[r0,#0x10]
        0x000019fc:    2301        .#      MOVS     r3,#1
        0x000019fe:    06db        ..      LSLS     r3,r3,#27
        0x00001a00:    4318        .C      ORRS     r0,r0,r3
        0x00001a02:    4bb9        .K      LDR      r3,[pc,#740] ; [0x1ce8] = 0x50000040
        0x00001a04:    6118        .a      STR      r0,[r3,#0x10]
        0x00001a06:    e16c        l.      B        0x1ce2 ; DrvGPIO_InitFunction + 1858
        0x00001a08:    bf00        ..      NOP      
        0x00001a0a:    bf00        ..      NOP      
        0x00001a0c:    bf00        ..      NOP      
        0x00001a0e:    bf00        ..      NOP      
        0x00001a10:    bf00        ..      NOP      
        0x00001a12:    2929        ))      CMP      r1,#0x29
        0x00001a14:    db03        ..      BLT      0x1a1e ; DrvGPIO_InitFunction + 1150
        0x00001a16:    292b        +)      CMP      r1,#0x2b
        0x00001a18:    dc01        ..      BGT      0x1a1e ; DrvGPIO_InitFunction + 1150
        0x00001a1a:    2200        ."      MOVS     r2,#0
        0x00001a1c:    e000        ..      B        0x1a20 ; DrvGPIO_InitFunction + 1152
        0x00001a1e:    2204        ."      MOVS     r2,#4
        0x00001a20:    2929        ))      CMP      r1,#0x29
        0x00001a22:    d001        ..      BEQ      0x1a28 ; DrvGPIO_InitFunction + 1160
        0x00001a24:    292c        ,)      CMP      r1,#0x2c
        0x00001a26:    d110        ..      BNE      0x1a4a ; DrvGPIO_InitFunction + 1194
        0x00001a28:    2005        .       MOVS     r0,#5
        0x00001a2a:    0700        ..      LSLS     r0,r0,#28
        0x00001a2c:    6b40        @k      LDR      r0,[r0,#0x34]
        0x00001a2e:    230f        .#      MOVS     r3,#0xf
        0x00001a30:    4093        .@      LSLS     r3,r3,r2
        0x00001a32:    4318        .C      ORRS     r0,r0,r3
        0x00001a34:    2305        .#      MOVS     r3,#5
        0x00001a36:    071b        ..      LSLS     r3,r3,#28
        0x00001a38:    6358        Xc      STR      r0,[r3,#0x34]
        0x00001a3a:    48ab        .H      LDR      r0,[pc,#684] ; [0x1ce8] = 0x50000040
        0x00001a3c:    6900        .i      LDR      r0,[r0,#0x10]
        0x00001a3e:    2301        .#      MOVS     r3,#1
        0x00001a40:    02db        ..      LSLS     r3,r3,#11
        0x00001a42:    4398        .C      BICS     r0,r0,r3
        0x00001a44:    4ba8        .K      LDR      r3,[pc,#672] ; [0x1ce8] = 0x50000040
        0x00001a46:    6118        .a      STR      r0,[r3,#0x10]
        0x00001a48:    e022        ".      B        0x1a90 ; DrvGPIO_InitFunction + 1264
        0x00001a4a:    292a        *)      CMP      r1,#0x2a
        0x00001a4c:    d001        ..      BEQ      0x1a52 ; DrvGPIO_InitFunction + 1202
        0x00001a4e:    292d        -)      CMP      r1,#0x2d
        0x00001a50:    d109        ..      BNE      0x1a66 ; DrvGPIO_InitFunction + 1222
        0x00001a52:    2005        .       MOVS     r0,#5
        0x00001a54:    0700        ..      LSLS     r0,r0,#28
        0x00001a56:    6b40        @k      LDR      r0,[r0,#0x34]
        0x00001a58:    2303        .#      MOVS     r3,#3
        0x00001a5a:    4093        .@      LSLS     r3,r3,r2
        0x00001a5c:    4318        .C      ORRS     r0,r0,r3
        0x00001a5e:    2305        .#      MOVS     r3,#5
        0x00001a60:    071b        ..      LSLS     r3,r3,#28
        0x00001a62:    6358        Xc      STR      r0,[r3,#0x34]
        0x00001a64:    e014        ..      B        0x1a90 ; DrvGPIO_InitFunction + 1264
        0x00001a66:    292b        +)      CMP      r1,#0x2b
        0x00001a68:    d001        ..      BEQ      0x1a6e ; DrvGPIO_InitFunction + 1230
        0x00001a6a:    292e        .)      CMP      r1,#0x2e
        0x00001a6c:    d110        ..      BNE      0x1a90 ; DrvGPIO_InitFunction + 1264
        0x00001a6e:    2005        .       MOVS     r0,#5
        0x00001a70:    0700        ..      LSLS     r0,r0,#28
        0x00001a72:    6b40        @k      LDR      r0,[r0,#0x34]
        0x00001a74:    1c93        ..      ADDS     r3,r2,#2
        0x00001a76:    2403        .$      MOVS     r4,#3
        0x00001a78:    409c        .@      LSLS     r4,r4,r3
        0x00001a7a:    4320         C      ORRS     r0,r0,r4
        0x00001a7c:    2305        .#      MOVS     r3,#5
        0x00001a7e:    071b        ..      LSLS     r3,r3,#28
        0x00001a80:    6358        Xc      STR      r0,[r3,#0x34]
        0x00001a82:    4899        .H      LDR      r0,[pc,#612] ; [0x1ce8] = 0x50000040
        0x00001a84:    6900        .i      LDR      r0,[r0,#0x10]
        0x00001a86:    2301        .#      MOVS     r3,#1
        0x00001a88:    02db        ..      LSLS     r3,r3,#11
        0x00001a8a:    4398        .C      BICS     r0,r0,r3
        0x00001a8c:    4b96        .K      LDR      r3,[pc,#600] ; [0x1ce8] = 0x50000040
        0x00001a8e:    6118        .a      STR      r0,[r3,#0x10]
        0x00001a90:    e127        '.      B        0x1ce2 ; DrvGPIO_InitFunction + 1858
        0x00001a92:    2005        .       MOVS     r0,#5
        0x00001a94:    0700        ..      LSLS     r0,r0,#28
        0x00001a96:    6bc0        .k      LDR      r0,[r0,#0x3c]
        0x00001a98:    2303        .#      MOVS     r3,#3
        0x00001a9a:    039b        ..      LSLS     r3,r3,#14
        0x00001a9c:    4318        .C      ORRS     r0,r0,r3
        0x00001a9e:    2305        .#      MOVS     r3,#5
        0x00001aa0:    071b        ..      LSLS     r3,r3,#28
        0x00001aa2:    63d8        .c      STR      r0,[r3,#0x3c]
        0x00001aa4:    e11d        ..      B        0x1ce2 ; DrvGPIO_InitFunction + 1858
        0x00001aa6:    bf00        ..      NOP      
        0x00001aa8:    bf00        ..      NOP      
        0x00001aaa:    2930        0)      CMP      r1,#0x30
        0x00001aac:    d108        ..      BNE      0x1ac0 ; DrvGPIO_InitFunction + 1312
        0x00001aae:    2005        .       MOVS     r0,#5
        0x00001ab0:    0700        ..      LSLS     r0,r0,#28
        0x00001ab2:    6b00        .k      LDR      r0,[r0,#0x30]
        0x00001ab4:    020b        ..      LSLS     r3,r1,#8
        0x00001ab6:    4318        .C      ORRS     r0,r0,r3
        0x00001ab8:    2305        .#      MOVS     r3,#5
        0x00001aba:    071b        ..      LSLS     r3,r3,#28
        0x00001abc:    6318        .c      STR      r0,[r3,#0x30]
        0x00001abe:    e00a        ..      B        0x1ad6 ; DrvGPIO_InitFunction + 1334
        0x00001ac0:    2005        .       MOVS     r0,#5
        0x00001ac2:    0700        ..      LSLS     r0,r0,#28
        0x00001ac4:    6b03        .k      LDR      r3,[r0,#0x30]
        0x00001ac6:    4608        .F      MOV      r0,r1
        0x00001ac8:    3828        (8      SUBS     r0,r0,#0x28
        0x00001aca:    2401        .$      MOVS     r4,#1
        0x00001acc:    4084        .@      LSLS     r4,r4,r0
        0x00001ace:    4323        #C      ORRS     r3,r3,r4
        0x00001ad0:    2005        .       MOVS     r0,#5
        0x00001ad2:    0700        ..      LSLS     r0,r0,#28
        0x00001ad4:    6303        .c      STR      r3,[r0,#0x30]
        0x00001ad6:    4884        .H      LDR      r0,[pc,#528] ; [0x1ce8] = 0x50000040
        0x00001ad8:    6900        .i      LDR      r0,[r0,#0x10]
        0x00001ada:    2301        .#      MOVS     r3,#1
        0x00001adc:    02db        ..      LSLS     r3,r3,#11
        0x00001ade:    4398        .C      BICS     r0,r0,r3
        0x00001ae0:    4b81        .K      LDR      r3,[pc,#516] ; [0x1ce8] = 0x50000040
        0x00001ae2:    6118        .a      STR      r0,[r3,#0x10]
        0x00001ae4:    e0fd        ..      B        0x1ce2 ; DrvGPIO_InitFunction + 1858
        0x00001ae6:    bf00        ..      NOP      
        0x00001ae8:    bf00        ..      NOP      
        0x00001aea:    2931        1)      CMP      r1,#0x31
        0x00001aec:    d116        ..      BNE      0x1b1c ; DrvGPIO_InitFunction + 1404
        0x00001aee:    2005        .       MOVS     r0,#5
        0x00001af0:    0700        ..      LSLS     r0,r0,#28
        0x00001af2:    6b00        .k      LDR      r0,[r0,#0x30]
        0x00001af4:    2303        .#      MOVS     r3,#3
        0x00001af6:    039b        ..      LSLS     r3,r3,#14
        0x00001af8:    4318        .C      ORRS     r0,r0,r3
        0x00001afa:    2305        .#      MOVS     r3,#5
        0x00001afc:    071b        ..      LSLS     r3,r3,#28
        0x00001afe:    6318        .c      STR      r0,[r3,#0x30]
        0x00001b00:    4879        yH      LDR      r0,[pc,#484] ; [0x1ce8] = 0x50000040
        0x00001b02:    6900        .i      LDR      r0,[r0,#0x10]
        0x00001b04:    2301        .#      MOVS     r3,#1
        0x00001b06:    025b        [.      LSLS     r3,r3,#9
        0x00001b08:    4398        .C      BICS     r0,r0,r3
        0x00001b0a:    4b77        wK      LDR      r3,[pc,#476] ; [0x1ce8] = 0x50000040
        0x00001b0c:    6118        .a      STR      r0,[r3,#0x10]
        0x00001b0e:    4618        .F      MOV      r0,r3
        0x00001b10:    6900        .i      LDR      r0,[r0,#0x10]
        0x00001b12:    015b        [.      LSLS     r3,r3,#5
        0x00001b14:    4398        .C      BICS     r0,r0,r3
        0x00001b16:    4b74        tK      LDR      r3,[pc,#464] ; [0x1ce8] = 0x50000040
        0x00001b18:    6118        .a      STR      r0,[r3,#0x10]
        0x00001b1a:    e01b        ..      B        0x1b54 ; DrvGPIO_InitFunction + 1460
        0x00001b1c:    2005        .       MOVS     r0,#5
        0x00001b1e:    0700        ..      LSLS     r0,r0,#28
        0x00001b20:    6b03        .k      LDR      r3,[r0,#0x30]
        0x00001b22:    4608        .F      MOV      r0,r1
        0x00001b24:    3828        (8      SUBS     r0,r0,#0x28
        0x00001b26:    2401        .$      MOVS     r4,#1
        0x00001b28:    4084        .@      LSLS     r4,r4,r0
        0x00001b2a:    4323        #C      ORRS     r3,r3,r4
        0x00001b2c:    2005        .       MOVS     r0,#5
        0x00001b2e:    0700        ..      LSLS     r0,r0,#28
        0x00001b30:    6303        .c      STR      r3,[r0,#0x30]
        0x00001b32:    2936        6)      CMP      r1,#0x36
        0x00001b34:    d107        ..      BNE      0x1b46 ; DrvGPIO_InitFunction + 1446
        0x00001b36:    486c        lH      LDR      r0,[pc,#432] ; [0x1ce8] = 0x50000040
        0x00001b38:    6900        .i      LDR      r0,[r0,#0x10]
        0x00001b3a:    2301        .#      MOVS     r3,#1
        0x00001b3c:    02db        ..      LSLS     r3,r3,#11
        0x00001b3e:    4398        .C      BICS     r0,r0,r3
        0x00001b40:    4b69        iK      LDR      r3,[pc,#420] ; [0x1ce8] = 0x50000040
        0x00001b42:    6118        .a      STR      r0,[r3,#0x10]
        0x00001b44:    e006        ..      B        0x1b54 ; DrvGPIO_InitFunction + 1460
        0x00001b46:    4868        hH      LDR      r0,[pc,#416] ; [0x1ce8] = 0x50000040
        0x00001b48:    6900        .i      LDR      r0,[r0,#0x10]
        0x00001b4a:    2301        .#      MOVS     r3,#1
        0x00001b4c:    025b        [.      LSLS     r3,r3,#9
        0x00001b4e:    4398        .C      BICS     r0,r0,r3
        0x00001b50:    4b65        eK      LDR      r3,[pc,#404] ; [0x1ce8] = 0x50000040
        0x00001b52:    6118        .a      STR      r0,[r3,#0x10]
        0x00001b54:    e0c5        ..      B        0x1ce2 ; DrvGPIO_InitFunction + 1858
        0x00001b56:    bf00        ..      NOP      
        0x00001b58:    bf00        ..      NOP      
        0x00001b5a:    2932        2)      CMP      r1,#0x32
        0x00001b5c:    d115        ..      BNE      0x1b8a ; DrvGPIO_InitFunction + 1514
        0x00001b5e:    2005        .       MOVS     r0,#5
        0x00001b60:    0700        ..      LSLS     r0,r0,#28
        0x00001b62:    6b40        @k      LDR      r0,[r0,#0x34]
        0x00001b64:    2301        .#      MOVS     r3,#1
        0x00001b66:    02db        ..      LSLS     r3,r3,#11
        0x00001b68:    4318        .C      ORRS     r0,r0,r3
        0x00001b6a:    2305        .#      MOVS     r3,#5
        0x00001b6c:    071b        ..      LSLS     r3,r3,#28
        0x00001b6e:    6358        Xc      STR      r0,[r3,#0x34]
        0x00001b70:    485d        ]H      LDR      r0,[pc,#372] ; [0x1ce8] = 0x50000040
        0x00001b72:    6900        .i      LDR      r0,[r0,#0x10]
        0x00001b74:    2310        .#      MOVS     r3,#0x10
        0x00001b76:    4318        .C      ORRS     r0,r0,r3
        0x00001b78:    4b5b        [K      LDR      r3,[pc,#364] ; [0x1ce8] = 0x50000040
        0x00001b7a:    6118        .a      STR      r0,[r3,#0x10]
        0x00001b7c:    4618        .F      MOV      r0,r3
        0x00001b7e:    6800        .h      LDR      r0,[r0,#0]
        0x00001b80:    2320         #      MOVS     r3,#0x20
        0x00001b82:    4318        .C      ORRS     r0,r0,r3
        0x00001b84:    4b58        XK      LDR      r3,[pc,#352] ; [0x1ce8] = 0x50000040
        0x00001b86:    6018        .`      STR      r0,[r3,#0]
        0x00001b88:    e017        ..      B        0x1bba ; DrvGPIO_InitFunction + 1562
        0x00001b8a:    2938        8)      CMP      r1,#0x38
        0x00001b8c:    d10f        ..      BNE      0x1bae ; DrvGPIO_InitFunction + 1550
        0x00001b8e:    2005        .       MOVS     r0,#5
        0x00001b90:    0700        ..      LSLS     r0,r0,#28
        0x00001b92:    6b40        @k      LDR      r0,[r0,#0x34]
        0x00001b94:    2301        .#      MOVS     r3,#1
        0x00001b96:    02db        ..      LSLS     r3,r3,#11
        0x00001b98:    4318        .C      ORRS     r0,r0,r3
        0x00001b9a:    2305        .#      MOVS     r3,#5
        0x00001b9c:    071b        ..      LSLS     r3,r3,#28
        0x00001b9e:    6358        Xc      STR      r0,[r3,#0x34]
        0x00001ba0:    4851        QH      LDR      r0,[pc,#324] ; [0x1ce8] = 0x50000040
        0x00001ba2:    6900        .i      LDR      r0,[r0,#0x10]
        0x00001ba4:    2310        .#      MOVS     r3,#0x10
        0x00001ba6:    4318        .C      ORRS     r0,r0,r3
        0x00001ba8:    4b4f        OK      LDR      r3,[pc,#316] ; [0x1ce8] = 0x50000040
        0x00001baa:    6118        .a      STR      r0,[r3,#0x10]
        0x00001bac:    e005        ..      B        0x1bba ; DrvGPIO_InitFunction + 1562
        0x00001bae:    484e        NH      LDR      r0,[pc,#312] ; [0x1ce8] = 0x50000040
        0x00001bb0:    6800        .h      LDR      r0,[r0,#0]
        0x00001bb2:    2320         #      MOVS     r3,#0x20
        0x00001bb4:    4318        .C      ORRS     r0,r0,r3
        0x00001bb6:    4b4c        LK      LDR      r3,[pc,#304] ; [0x1ce8] = 0x50000040
        0x00001bb8:    6018        .`      STR      r0,[r3,#0]
        0x00001bba:    e092        ..      B        0x1ce2 ; DrvGPIO_InitFunction + 1858
        0x00001bbc:    bf00        ..      NOP      
        0x00001bbe:    bf00        ..      NOP      
        0x00001bc0:    2933        3)      CMP      r1,#0x33
        0x00001bc2:    d106        ..      BNE      0x1bd2 ; DrvGPIO_InitFunction + 1586
        0x00001bc4:    4848        HH      LDR      r0,[pc,#288] ; [0x1ce8] = 0x50000040
        0x00001bc6:    6800        .h      LDR      r0,[r0,#0]
        0x00001bc8:    2303        .#      MOVS     r3,#3
        0x00001bca:    4318        .C      ORRS     r0,r0,r3
        0x00001bcc:    4b46        FK      LDR      r3,[pc,#280] ; [0x1ce8] = 0x50000040
        0x00001bce:    6018        .`      STR      r0,[r3,#0]
        0x00001bd0:    e00e        ..      B        0x1bf0 ; DrvGPIO_InitFunction + 1616
        0x00001bd2:    293a        :)      CMP      r1,#0x3a
        0x00001bd4:    d106        ..      BNE      0x1be4 ; DrvGPIO_InitFunction + 1604
        0x00001bd6:    4844        DH      LDR      r0,[pc,#272] ; [0x1ce8] = 0x50000040
        0x00001bd8:    6800        .h      LDR      r0,[r0,#0]
        0x00001bda:    2301        .#      MOVS     r3,#1
        0x00001bdc:    4318        .C      ORRS     r0,r0,r3
        0x00001bde:    4b42        BK      LDR      r3,[pc,#264] ; [0x1ce8] = 0x50000040
        0x00001be0:    6018        .`      STR      r0,[r3,#0]
        0x00001be2:    e005        ..      B        0x1bf0 ; DrvGPIO_InitFunction + 1616
        0x00001be4:    4840        @H      LDR      r0,[pc,#256] ; [0x1ce8] = 0x50000040
        0x00001be6:    6800        .h      LDR      r0,[r0,#0]
        0x00001be8:    2302        .#      MOVS     r3,#2
        0x00001bea:    4318        .C      ORRS     r0,r0,r3
        0x00001bec:    4b3e        >K      LDR      r3,[pc,#248] ; [0x1ce8] = 0x50000040
        0x00001bee:    6018        .`      STR      r0,[r3,#0]
        0x00001bf0:    e077        w.      B        0x1ce2 ; DrvGPIO_InitFunction + 1858
        0x00001bf2:    2005        .       MOVS     r0,#5
        0x00001bf4:    0700        ..      LSLS     r0,r0,#28
        0x00001bf6:    6b40        @k      LDR      r0,[r0,#0x34]
        0x00001bf8:    230c        .#      MOVS     r3,#0xc
        0x00001bfa:    4318        .C      ORRS     r0,r0,r3
        0x00001bfc:    2305        .#      MOVS     r3,#5
        0x00001bfe:    071b        ..      LSLS     r3,r3,#28
        0x00001c00:    6358        Xc      STR      r0,[r3,#0x34]
        0x00001c02:    4839        9H      LDR      r0,[pc,#228] ; [0x1ce8] = 0x50000040
        0x00001c04:    6900        .i      LDR      r0,[r0,#0x10]
        0x00001c06:    2303        .#      MOVS     r3,#3
        0x00001c08:    035b        [.      LSLS     r3,r3,#13
        0x00001c0a:    4318        .C      ORRS     r0,r0,r3
        0x00001c0c:    4b36        6K      LDR      r3,[pc,#216] ; [0x1ce8] = 0x50000040
        0x00001c0e:    6118        .a      STR      r0,[r3,#0x10]
        0x00001c10:    2005        .       MOVS     r0,#5
        0x00001c12:    0700        ..      LSLS     r0,r0,#28
        0x00001c14:    6b00        .k      LDR      r0,[r0,#0x30]
        0x00001c16:    4b35        5K      LDR      r3,[pc,#212] ; [0x1cec] = 0x703e
        0x00001c18:    4318        .C      ORRS     r0,r0,r3
        0x00001c1a:    2305        .#      MOVS     r3,#5
        0x00001c1c:    071b        ..      LSLS     r3,r3,#28
        0x00001c1e:    6318        .c      STR      r0,[r3,#0x30]
        0x00001c20:    4831        1H      LDR      r0,[pc,#196] ; [0x1ce8] = 0x50000040
        0x00001c22:    6900        .i      LDR      r0,[r0,#0x10]
        0x00001c24:    23ff        .#      MOVS     r3,#0xff
        0x00001c26:    041b        ..      LSLS     r3,r3,#16
        0x00001c28:    4318        .C      ORRS     r0,r0,r3
        0x00001c2a:    4b2f        /K      LDR      r3,[pc,#188] ; [0x1ce8] = 0x50000040
        0x00001c2c:    6118        .a      STR      r0,[r3,#0x10]
        0x00001c2e:    bf00        ..      NOP      
        0x00001c30:    293c        <)      CMP      r1,#0x3c
        0x00001c32:    d11e        ..      BNE      0x1c72 ; DrvGPIO_InitFunction + 1746
        0x00001c34:    2005        .       MOVS     r0,#5
        0x00001c36:    0700        ..      LSLS     r0,r0,#28
        0x00001c38:    6b40        @k      LDR      r0,[r0,#0x34]
        0x00001c3a:    230c        .#      MOVS     r3,#0xc
        0x00001c3c:    4398        .C      BICS     r0,r0,r3
        0x00001c3e:    2305        .#      MOVS     r3,#5
        0x00001c40:    071b        ..      LSLS     r3,r3,#28
        0x00001c42:    6358        Xc      STR      r0,[r3,#0x34]
        0x00001c44:    4828        (H      LDR      r0,[pc,#160] ; [0x1ce8] = 0x50000040
        0x00001c46:    6900        .i      LDR      r0,[r0,#0x10]
        0x00001c48:    2303        .#      MOVS     r3,#3
        0x00001c4a:    035b        [.      LSLS     r3,r3,#13
        0x00001c4c:    4398        .C      BICS     r0,r0,r3
        0x00001c4e:    4b26        &K      LDR      r3,[pc,#152] ; [0x1ce8] = 0x50000040
        0x00001c50:    6118        .a      STR      r0,[r3,#0x10]
        0x00001c52:    2005        .       MOVS     r0,#5
        0x00001c54:    0700        ..      LSLS     r0,r0,#28
        0x00001c56:    6b00        .k      LDR      r0,[r0,#0x30]
        0x00001c58:    4b24        $K      LDR      r3,[pc,#144] ; [0x1cec] = 0x703e
        0x00001c5a:    43db        .C      MVNS     r3,r3
        0x00001c5c:    4018        .@      ANDS     r0,r0,r3
        0x00001c5e:    2305        .#      MOVS     r3,#5
        0x00001c60:    071b        ..      LSLS     r3,r3,#28
        0x00001c62:    6318        .c      STR      r0,[r3,#0x30]
        0x00001c64:    4820         H      LDR      r0,[pc,#128] ; [0x1ce8] = 0x50000040
        0x00001c66:    6900        .i      LDR      r0,[r0,#0x10]
        0x00001c68:    23ff        .#      MOVS     r3,#0xff
        0x00001c6a:    041b        ..      LSLS     r3,r3,#16
        0x00001c6c:    4398        .C      BICS     r0,r0,r3
        0x00001c6e:    4b1e        .K      LDR      r3,[pc,#120] ; [0x1ce8] = 0x50000040
        0x00001c70:    6118        .a      STR      r0,[r3,#0x10]
        0x00001c72:    481d        .H      LDR      r0,[pc,#116] ; [0x1ce8] = 0x50000040
        0x00001c74:    6900        .i      LDR      r0,[r0,#0x10]
        0x00001c76:    2303        .#      MOVS     r3,#3
        0x00001c78:    02db        ..      LSLS     r3,r3,#11
        0x00001c7a:    4318        .C      ORRS     r0,r0,r3
        0x00001c7c:    4b1a        .K      LDR      r3,[pc,#104] ; [0x1ce8] = 0x50000040
        0x00001c7e:    6118        .a      STR      r0,[r3,#0x10]
        0x00001c80:    2005        .       MOVS     r0,#5
        0x00001c82:    0700        ..      LSLS     r0,r0,#28
        0x00001c84:    6b80        .k      LDR      r0,[r0,#0x38]
        0x00001c86:    23ff        .#      MOVS     r3,#0xff
        0x00001c88:    3301        .3      ADDS     r3,#1
        0x00001c8a:    4318        .C      ORRS     r0,r0,r3
        0x00001c8c:    2305        .#      MOVS     r3,#5
        0x00001c8e:    071b        ..      LSLS     r3,r3,#28
        0x00001c90:    6398        .c      STR      r0,[r3,#0x38]
        0x00001c92:    4618        .F      MOV      r0,r3
        0x00001c94:    6b00        .k      LDR      r0,[r0,#0x30]
        0x00001c96:    2303        .#      MOVS     r3,#3
        0x00001c98:    029b        ..      LSLS     r3,r3,#10
        0x00001c9a:    4318        .C      ORRS     r0,r0,r3
        0x00001c9c:    2305        .#      MOVS     r3,#5
        0x00001c9e:    071b        ..      LSLS     r3,r3,#28
        0x00001ca0:    6318        .c      STR      r0,[r3,#0x30]
        0x00001ca2:    4618        .F      MOV      r0,r3
        0x00001ca4:    6b40        @k      LDR      r0,[r0,#0x34]
        0x00001ca6:    23c0        .#      MOVS     r3,#0xc0
        0x00001ca8:    4318        .C      ORRS     r0,r0,r3
        0x00001caa:    2305        .#      MOVS     r3,#5
        0x00001cac:    071b        ..      LSLS     r3,r3,#28
        0x00001cae:    6358        Xc      STR      r0,[r3,#0x34]
        0x00001cb0:    4618        .F      MOV      r0,r3
        0x00001cb2:    6b00        .k      LDR      r0,[r0,#0x30]
        0x00001cb4:    23c0        .#      MOVS     r3,#0xc0
        0x00001cb6:    4318        .C      ORRS     r0,r0,r3
        0x00001cb8:    2305        .#      MOVS     r3,#5
        0x00001cba:    071b        ..      LSLS     r3,r3,#28
        0x00001cbc:    6318        .c      STR      r0,[r3,#0x30]
        0x00001cbe:    4618        .F      MOV      r0,r3
        0x00001cc0:    6b80        .k      LDR      r0,[r0,#0x38]
        0x00001cc2:    4b0b        .K      LDR      r3,[pc,#44] ; [0x1cf0] = 0xc0c0
        0x00001cc4:    4318        .C      ORRS     r0,r0,r3
        0x00001cc6:    2305        .#      MOVS     r3,#5
        0x00001cc8:    071b        ..      LSLS     r3,r3,#28
        0x00001cca:    6398        .c      STR      r0,[r3,#0x38]
        0x00001ccc:    4618        .F      MOV      r0,r3
        0x00001cce:    6b40        @k      LDR      r0,[r0,#0x34]
        0x00001cd0:    2303        .#      MOVS     r3,#3
        0x00001cd2:    031b        ..      LSLS     r3,r3,#12
        0x00001cd4:    4318        .C      ORRS     r0,r0,r3
        0x00001cd6:    2305        .#      MOVS     r3,#5
        0x00001cd8:    071b        ..      LSLS     r3,r3,#28
        0x00001cda:    6358        Xc      STR      r0,[r3,#0x34]
        0x00001cdc:    e001        ..      B        0x1ce2 ; DrvGPIO_InitFunction + 1858
        0x00001cde:    4805        .H      LDR      r0,[pc,#20] ; [0x1cf4] = 0xffff8901
        0x00001ce0:    bd10        ..      POP      {r4,pc}
        0x00001ce2:    bf00        ..      NOP      
        0x00001ce4:    2000        .       MOVS     r0,#0
        0x00001ce6:    e7fb        ..      B        0x1ce0 ; DrvGPIO_InitFunction + 1856
    $d
        0x00001ce8:    50000040    @..P    DCD    1342177344
        0x00001cec:    0000703e    >p..    DCD    28734
        0x00001cf0:    0000c0c0    ....    DCD    49344
        0x00001cf4:    ffff8901    ....    DCD    4294936833
    $t
    i.DrvGPIO_Open
    DrvGPIO_Open
        0x00001cf8:    b538        8.      PUSH     {r3-r5,lr}
        0x00001cfa:    4603        .F      MOV      r3,r0
        0x00001cfc:    2900        .)      CMP      r1,#0
        0x00001cfe:    db01        ..      BLT      0x1d04 ; DrvGPIO_Open + 12
        0x00001d00:    2910        .)      CMP      r1,#0x10
        0x00001d02:    dd01        ..      BLE      0x1d08 ; DrvGPIO_Open + 16
        0x00001d04:    481c        .H      LDR      r0,[pc,#112] ; [0x1d78] = 0xffff8901
        0x00001d06:    bd38        8.      POP      {r3-r5,pc}
        0x00001d08:    0198        ..      LSLS     r0,r3,#6
        0x00001d0a:    4c1c        .L      LDR      r4,[pc,#112] ; [0x1d7c] = 0x50004000
        0x00001d0c:    1900        ..      ADDS     r0,r0,r4
        0x00001d0e:    9000        ..      STR      r0,[sp,#0]
        0x00001d10:    2a00        .*      CMP      r2,#0
        0x00001d12:    d003        ..      BEQ      0x1d1c ; DrvGPIO_Open + 36
        0x00001d14:    2a01        .*      CMP      r2,#1
        0x00001d16:    d001        ..      BEQ      0x1d1c ; DrvGPIO_Open + 36
        0x00001d18:    2a02        .*      CMP      r2,#2
        0x00001d1a:    d11d        ..      BNE      0x1d58 ; DrvGPIO_Open + 96
        0x00001d1c:    9800        ..      LDR      r0,[sp,#0]
        0x00001d1e:    6800        .h      LDR      r0,[r0,#0]
        0x00001d20:    004d        M.      LSLS     r5,r1,#1
        0x00001d22:    2403        .$      MOVS     r4,#3
        0x00001d24:    40ac        .@      LSLS     r4,r4,r5
        0x00001d26:    43a0        .C      BICS     r0,r0,r4
        0x00001d28:    9c00        ..      LDR      r4,[sp,#0]
        0x00001d2a:    6020         `      STR      r0,[r4,#0]
        0x00001d2c:    2a01        .*      CMP      r2,#1
        0x00001d2e:    d108        ..      BNE      0x1d42 ; DrvGPIO_Open + 74
        0x00001d30:    9800        ..      LDR      r0,[sp,#0]
        0x00001d32:    6800        .h      LDR      r0,[r0,#0]
        0x00001d34:    004d        M.      LSLS     r5,r1,#1
        0x00001d36:    2401        .$      MOVS     r4,#1
        0x00001d38:    40ac        .@      LSLS     r4,r4,r5
        0x00001d3a:    4320         C      ORRS     r0,r0,r4
        0x00001d3c:    9c00        ..      LDR      r4,[sp,#0]
        0x00001d3e:    6020         `      STR      r0,[r4,#0]
        0x00001d40:    e017        ..      B        0x1d72 ; DrvGPIO_Open + 122
        0x00001d42:    2a02        .*      CMP      r2,#2
        0x00001d44:    d115        ..      BNE      0x1d72 ; DrvGPIO_Open + 122
        0x00001d46:    9800        ..      LDR      r0,[sp,#0]
        0x00001d48:    6800        .h      LDR      r0,[r0,#0]
        0x00001d4a:    004d        M.      LSLS     r5,r1,#1
        0x00001d4c:    2402        .$      MOVS     r4,#2
        0x00001d4e:    40ac        .@      LSLS     r4,r4,r5
        0x00001d50:    4320         C      ORRS     r0,r0,r4
        0x00001d52:    9c00        ..      LDR      r4,[sp,#0]
        0x00001d54:    6020         `      STR      r0,[r4,#0]
        0x00001d56:    e00c        ..      B        0x1d72 ; DrvGPIO_Open + 122
        0x00001d58:    2a03        .*      CMP      r2,#3
        0x00001d5a:    d108        ..      BNE      0x1d6e ; DrvGPIO_Open + 118
        0x00001d5c:    9800        ..      LDR      r0,[sp,#0]
        0x00001d5e:    6800        .h      LDR      r0,[r0,#0]
        0x00001d60:    004d        M.      LSLS     r5,r1,#1
        0x00001d62:    2403        .$      MOVS     r4,#3
        0x00001d64:    40ac        .@      LSLS     r4,r4,r5
        0x00001d66:    4320         C      ORRS     r0,r0,r4
        0x00001d68:    9c00        ..      LDR      r4,[sp,#0]
        0x00001d6a:    6020         `      STR      r0,[r4,#0]
        0x00001d6c:    e001        ..      B        0x1d72 ; DrvGPIO_Open + 122
        0x00001d6e:    4802        .H      LDR      r0,[pc,#8] ; [0x1d78] = 0xffff8901
        0x00001d70:    e7c9        ..      B        0x1d06 ; DrvGPIO_Open + 14
        0x00001d72:    2000        .       MOVS     r0,#0
        0x00001d74:    e7c7        ..      B        0x1d06 ; DrvGPIO_Open + 14
    $d
        0x00001d76:    0000        ..      DCW    0
        0x00001d78:    ffff8901    ....    DCD    4294936833
        0x00001d7c:    50004000    .@.P    DCD    1342193664
    $t
    i.DrvSYS_Delay
    DrvSYS_Delay
        0x00001d80:    4908        .I      LDR      r1,[pc,#32] ; [0x1da4] = 0x20000004
        0x00001d82:    6809        .h      LDR      r1,[r1,#0]
        0x00001d84:    4341        AC      MULS     r1,r0,r1
        0x00001d86:    4a08        .J      LDR      r2,[pc,#32] ; [0x1da8] = 0xe000e000
        0x00001d88:    6151        Qa      STR      r1,[r2,#0x14]
        0x00001d8a:    2100        .!      MOVS     r1,#0
        0x00001d8c:    6191        .a      STR      r1,[r2,#0x18]
        0x00001d8e:    2105        .!      MOVS     r1,#5
        0x00001d90:    6111        .a      STR      r1,[r2,#0x10]
        0x00001d92:    bf00        ..      NOP      
        0x00001d94:    4904        .I      LDR      r1,[pc,#16] ; [0x1da8] = 0xe000e000
        0x00001d96:    6909        .i      LDR      r1,[r1,#0x10]
        0x00001d98:    2201        ."      MOVS     r2,#1
        0x00001d9a:    0412        ..      LSLS     r2,r2,#16
        0x00001d9c:    4211        .B      TST      r1,r2
        0x00001d9e:    d0f9        ..      BEQ      0x1d94 ; DrvSYS_Delay + 20
        0x00001da0:    4770        pG      BX       lr
    $d
        0x00001da2:    0000        ..      DCW    0
        0x00001da4:    20000004    ...     DCD    536870916
        0x00001da8:    e000e000    ....    DCD    3758153728
    $t
    i.DrvSYS_GetExtClockFreq
    DrvSYS_GetExtClockFreq
        0x00001dac:    4800        .H      LDR      r0,[pc,#0] ; [0x1db0] = 0xb71b00
        0x00001dae:    4770        pG      BX       lr
    $d
        0x00001db0:    00b71b00    ....    DCD    12000000
    $t
    i.DrvSYS_GetHCLKFreq
    DrvSYS_GetHCLKFreq
        0x00001db4:    b570        p.      PUSH     {r4-r6,lr}
        0x00001db6:    2500        .%      MOVS     r5,#0
        0x00001db8:    4815        .H      LDR      r0,[pc,#84] ; [0x1e10] = 0x50000200
        0x00001dba:    6900        .i      LDR      r0,[r0,#0x10]
        0x00001dbc:    0740        @.      LSLS     r0,r0,#29
        0x00001dbe:    0f40        @.      LSRS     r0,r0,#29
        0x00001dc0:    d101        ..      BNE      0x1dc6 ; DrvSYS_GetHCLKFreq + 18
        0x00001dc2:    4d14        .M      LDR      r5,[pc,#80] ; [0x1e14] = 0xb71b00
        0x00001dc4:    e01a        ..      B        0x1dfc ; DrvSYS_GetHCLKFreq + 72
        0x00001dc6:    4812        .H      LDR      r0,[pc,#72] ; [0x1e10] = 0x50000200
        0x00001dc8:    6900        .i      LDR      r0,[r0,#0x10]
        0x00001dca:    0740        @.      LSLS     r0,r0,#29
        0x00001dcc:    0f40        @.      LSRS     r0,r0,#29
        0x00001dce:    2801        .(      CMP      r0,#1
        0x00001dd0:    d101        ..      BNE      0x1dd6 ; DrvSYS_GetHCLKFreq + 34
        0x00001dd2:    03c5        ..      LSLS     r5,r0,#15
        0x00001dd4:    e012        ..      B        0x1dfc ; DrvSYS_GetHCLKFreq + 72
        0x00001dd6:    480e        .H      LDR      r0,[pc,#56] ; [0x1e10] = 0x50000200
        0x00001dd8:    6900        .i      LDR      r0,[r0,#0x10]
        0x00001dda:    0740        @.      LSLS     r0,r0,#29
        0x00001ddc:    0f40        @.      LSRS     r0,r0,#29
        0x00001dde:    2802        .(      CMP      r0,#2
        0x00001de0:    d103        ..      BNE      0x1dea ; DrvSYS_GetHCLKFreq + 54
        0x00001de2:    f000f81d    ....    BL       DrvSYS_GetPLLClockFreq ; 0x1e20
        0x00001de6:    4605        .F      MOV      r5,r0
        0x00001de8:    e008        ..      B        0x1dfc ; DrvSYS_GetHCLKFreq + 72
        0x00001dea:    4809        .H      LDR      r0,[pc,#36] ; [0x1e10] = 0x50000200
        0x00001dec:    6900        .i      LDR      r0,[r0,#0x10]
        0x00001dee:    0740        @.      LSLS     r0,r0,#29
        0x00001df0:    0f40        @.      LSRS     r0,r0,#29
        0x00001df2:    2803        .(      CMP      r0,#3
        0x00001df4:    d101        ..      BNE      0x1dfa ; DrvSYS_GetHCLKFreq + 70
        0x00001df6:    4d08        .M      LDR      r5,[pc,#32] ; [0x1e18] = 0x2710
        0x00001df8:    e000        ..      B        0x1dfc ; DrvSYS_GetHCLKFreq + 72
        0x00001dfa:    4d08        .M      LDR      r5,[pc,#32] ; [0x1e1c] = 0x1518000
        0x00001dfc:    4804        .H      LDR      r0,[pc,#16] ; [0x1e10] = 0x50000200
        0x00001dfe:    6980        .i      LDR      r0,[r0,#0x18]
        0x00001e00:    0700        ..      LSLS     r0,r0,#28
        0x00001e02:    0f00        ..      LSRS     r0,r0,#28
        0x00001e04:    1c44        D.      ADDS     r4,r0,#1
        0x00001e06:    4621        !F      MOV      r1,r4
        0x00001e08:    4628        (F      MOV      r0,r5
        0x00001e0a:    f7fefb21    ..!.    BL       __aeabi_uidiv ; 0x450
        0x00001e0e:    bd70        p.      POP      {r4-r6,pc}
    $d
        0x00001e10:    50000200    ...P    DCD    1342177792
        0x00001e14:    00b71b00    ....    DCD    12000000
        0x00001e18:    00002710    .'..    DCD    10000
        0x00001e1c:    01518000    ..Q.    DCD    22118400
    $t
    i.DrvSYS_GetPLLClockFreq
    DrvSYS_GetPLLClockFreq
        0x00001e20:    b57f        ..      PUSH     {r0-r6,lr}
        0x00001e22:    2500        .%      MOVS     r5,#0
        0x00001e24:    4b17        .K      LDR      r3,[pc,#92] ; [0x1e84] = 0x376c
        0x00001e26:    cb0f        ..      LDM      r3,{r0-r3}
        0x00001e28:    466c        lF      MOV      r4,sp
        0x00001e2a:    c40f        ..      STM      r4!,{r0-r3}
        0x00001e2c:    4816        .H      LDR      r0,[pc,#88] ; [0x1e88] = 0x50000200
        0x00001e2e:    6a00        .j      LDR      r0,[r0,#0x20]
        0x00001e30:    0300        ..      LSLS     r0,r0,#12
        0x00001e32:    0fc0        ..      LSRS     r0,r0,#31
        0x00001e34:    d001        ..      BEQ      0x1e3a ; DrvSYS_GetPLLClockFreq + 26
        0x00001e36:    4c15        .L      LDR      r4,[pc,#84] ; [0x1e8c] = 0x1518000
        0x00001e38:    e000        ..      B        0x1e3c ; DrvSYS_GetPLLClockFreq + 28
        0x00001e3a:    4c15        .L      LDR      r4,[pc,#84] ; [0x1e90] = 0xb71b00
        0x00001e3c:    4812        .H      LDR      r0,[pc,#72] ; [0x1e88] = 0x50000200
        0x00001e3e:    6a00        .j      LDR      r0,[r0,#0x20]
        0x00001e40:    03c0        ..      LSLS     r0,r0,#15
        0x00001e42:    0fc0        ..      LSRS     r0,r0,#31
        0x00001e44:    d001        ..      BEQ      0x1e4a ; DrvSYS_GetPLLClockFreq + 42
        0x00001e46:    2500        .%      MOVS     r5,#0
        0x00001e48:    e019        ..      B        0x1e7e ; DrvSYS_GetPLLClockFreq + 94
        0x00001e4a:    4a0f        .J      LDR      r2,[pc,#60] ; [0x1e88] = 0x50000200
        0x00001e4c:    6a12        .j      LDR      r2,[r2,#0x20]
        0x00001e4e:    0492        ..      LSLS     r2,r2,#18
        0x00001e50:    0ed2        ..      LSRS     r2,r2,#27
        0x00001e52:    1c91        ..      ADDS     r1,r2,#2
        0x00001e54:    4a0c        .J      LDR      r2,[pc,#48] ; [0x1e88] = 0x50000200
        0x00001e56:    6a12        .j      LDR      r2,[r2,#0x20]
        0x00001e58:    05d2        ..      LSLS     r2,r2,#23
        0x00001e5a:    0dd2        ..      LSRS     r2,r2,#23
        0x00001e5c:    1c92        ..      ADDS     r2,r2,#2
        0x00001e5e:    4362        bC      MULS     r2,r4,r2
        0x00001e60:    4610        .F      MOV      r0,r2
        0x00001e62:    f7fefaf5    ....    BL       __aeabi_uidiv ; 0x450
        0x00001e66:    4606        .F      MOV      r6,r0
        0x00001e68:    4807        .H      LDR      r0,[pc,#28] ; [0x1e88] = 0x50000200
        0x00001e6a:    6a00        .j      LDR      r0,[r0,#0x20]
        0x00001e6c:    0400        ..      LSLS     r0,r0,#16
        0x00001e6e:    0f80        ..      LSRS     r0,r0,#30
        0x00001e70:    0080        ..      LSLS     r0,r0,#2
        0x00001e72:    466a        jF      MOV      r2,sp
        0x00001e74:    5811        .X      LDR      r1,[r2,r0]
        0x00001e76:    4630        0F      MOV      r0,r6
        0x00001e78:    f7fefaea    ....    BL       __aeabi_uidiv ; 0x450
        0x00001e7c:    4605        .F      MOV      r5,r0
        0x00001e7e:    4628        (F      MOV      r0,r5
        0x00001e80:    b004        ..      ADD      sp,sp,#0x10
        0x00001e82:    bd70        p.      POP      {r4-r6,pc}
    $d
        0x00001e84:    0000376c    l7..    DCD    14188
        0x00001e88:    50000200    ...P    DCD    1342177792
        0x00001e8c:    01518000    ..Q.    DCD    22118400
        0x00001e90:    00b71b00    ....    DCD    12000000
    $t
    i.DrvSYS_GetPLLContent
    DrvSYS_GetPLLContent
        0x00001e94:    b5f3        ..      PUSH     {r0,r1,r4-r7,lr}
        0x00001e96:    b083        ..      SUB      sp,sp,#0xc
        0x00001e98:    460c        .F      MOV      r4,r1
        0x00001e9a:    4827        'H      LDR      r0,[pc,#156] ; [0x1f38] = 0xb71b00
        0x00001e9c:    9002        ..      STR      r0,[sp,#8]
        0x00001e9e:    2000        .       MOVS     r0,#0
        0x00001ea0:    9001        ..      STR      r0,[sp,#4]
        0x00001ea2:    4826        &H      LDR      r0,[pc,#152] ; [0x1f3c] = 0xbebc200
        0x00001ea4:    4284        .B      CMP      r4,r0
        0x00001ea6:    d804        ..      BHI      0x1eb2 ; DrvSYS_GetPLLContent + 30
        0x00001ea8:    1040        @.      ASRS     r0,r0,#1
        0x00001eaa:    4284        .B      CMP      r4,r0
        0x00001eac:    d901        ..      BLS      0x1eb2 ; DrvSYS_GetPLLContent + 30
        0x00001eae:    2700        .'      MOVS     r7,#0
        0x00001eb0:    e014        ..      B        0x1edc ; DrvSYS_GetPLLContent + 72
        0x00001eb2:    4823        #H      LDR      r0,[pc,#140] ; [0x1f40] = 0x5f5e100
        0x00001eb4:    4284        .B      CMP      r4,r0
        0x00001eb6:    d805        ..      BHI      0x1ec4 ; DrvSYS_GetPLLContent + 48
        0x00001eb8:    1040        @.      ASRS     r0,r0,#1
        0x00001eba:    4284        .B      CMP      r4,r0
        0x00001ebc:    d902        ..      BLS      0x1ec4 ; DrvSYS_GetPLLContent + 48
        0x00001ebe:    2701        .'      MOVS     r7,#1
        0x00001ec0:    0064        d.      LSLS     r4,r4,#1
        0x00001ec2:    e00b        ..      B        0x1edc ; DrvSYS_GetPLLContent + 72
        0x00001ec4:    481f        .H      LDR      r0,[pc,#124] ; [0x1f44] = 0x2faf080
        0x00001ec6:    4284        .B      CMP      r4,r0
        0x00001ec8:    d805        ..      BHI      0x1ed6 ; DrvSYS_GetPLLContent + 66
        0x00001eca:    1040        @.      ASRS     r0,r0,#1
        0x00001ecc:    4284        .B      CMP      r4,r0
        0x00001ece:    d302        ..      BCC      0x1ed6 ; DrvSYS_GetPLLContent + 66
        0x00001ed0:    2703        .'      MOVS     r7,#3
        0x00001ed2:    00a4        ..      LSLS     r4,r4,#2
        0x00001ed4:    e002        ..      B        0x1edc ; DrvSYS_GetPLLContent + 72
        0x00001ed6:    481c        .H      LDR      r0,[pc,#112] ; [0x1f48] = 0xc22e
        0x00001ed8:    b005        ..      ADD      sp,sp,#0x14
        0x00001eda:    bdf0        ..      POP      {r4-r7,pc}
        0x00001edc:    9803        ..      LDR      r0,[sp,#0xc]
        0x00001ede:    2800        .(      CMP      r0,#0
        0x00001ee0:    d102        ..      BNE      0x1ee8 ; DrvSYS_GetPLLContent + 84
        0x00001ee2:    4815        .H      LDR      r0,[pc,#84] ; [0x1f38] = 0xb71b00
        0x00001ee4:    9002        ..      STR      r0,[sp,#8]
        0x00001ee6:    e004        ..      B        0x1ef2 ; DrvSYS_GetPLLContent + 94
        0x00001ee8:    9803        ..      LDR      r0,[sp,#0xc]
        0x00001eea:    2801        .(      CMP      r0,#1
        0x00001eec:    d101        ..      BNE      0x1ef2 ; DrvSYS_GetPLLContent + 94
        0x00001eee:    4817        .H      LDR      r0,[pc,#92] ; [0x1f4c] = 0x1518000
        0x00001ef0:    9002        ..      STR      r0,[sp,#8]
        0x00001ef2:    4917        .I      LDR      r1,[pc,#92] ; [0x1f50] = 0xf4240
        0x00001ef4:    4620         F      MOV      r0,r4
        0x00001ef6:    f7fefaab    ....    BL       __aeabi_uidiv ; 0x450
        0x00001efa:    4606        .F      MOV      r6,r0
        0x00001efc:    4914        .I      LDR      r1,[pc,#80] ; [0x1f50] = 0xf4240
        0x00001efe:    9802        ..      LDR      r0,[sp,#8]
        0x00001f00:    f7fefaa6    ....    BL       __aeabi_uidiv ; 0x450
        0x00001f04:    4605        .F      MOV      r5,r0
        0x00001f06:    e00c        ..      B        0x1f22 ; DrvSYS_GetPLLContent + 142
        0x00001f08:    07e8        ..      LSLS     r0,r5,#31
        0x00001f0a:    0fc0        ..      LSRS     r0,r0,#31
        0x00001f0c:    d106        ..      BNE      0x1f1c ; DrvSYS_GetPLLContent + 136
        0x00001f0e:    07f0        ..      LSLS     r0,r6,#31
        0x00001f10:    0fc0        ..      LSRS     r0,r0,#31
        0x00001f12:    d103        ..      BNE      0x1f1c ; DrvSYS_GetPLLContent + 136
        0x00001f14:    2d02        .-      CMP      r5,#2
        0x00001f16:    d001        ..      BEQ      0x1f1c ; DrvSYS_GetPLLContent + 136
        0x00001f18:    2e02        ..      CMP      r6,#2
        0x00001f1a:    d100        ..      BNE      0x1f1e ; DrvSYS_GetPLLContent + 138
        0x00001f1c:    e002        ..      B        0x1f24 ; DrvSYS_GetPLLContent + 144
        0x00001f1e:    086d        m.      LSRS     r5,r5,#1
        0x00001f20:    0876        v.      LSRS     r6,r6,#1
        0x00001f22:    e7f1        ..      B        0x1f08 ; DrvSYS_GetPLLContent + 116
        0x00001f24:    bf00        ..      NOP      
        0x00001f26:    03b8        ..      LSLS     r0,r7,#14
        0x00001f28:    1ea9        ..      SUBS     r1,r5,#2
        0x00001f2a:    0249        I.      LSLS     r1,r1,#9
        0x00001f2c:    4308        .C      ORRS     r0,r0,r1
        0x00001f2e:    1eb1        ..      SUBS     r1,r6,#2
        0x00001f30:    4308        .C      ORRS     r0,r0,r1
        0x00001f32:    9001        ..      STR      r0,[sp,#4]
        0x00001f34:    9801        ..      LDR      r0,[sp,#4]
        0x00001f36:    e7cf        ..      B        0x1ed8 ; DrvSYS_GetPLLContent + 68
    $d
        0x00001f38:    00b71b00    ....    DCD    12000000
        0x00001f3c:    0bebc200    ....    DCD    200000000
        0x00001f40:    05f5e100    ....    DCD    100000000
        0x00001f44:    02faf080    ....    DCD    50000000
        0x00001f48:    0000c22e    ....    DCD    49710
        0x00001f4c:    01518000    ..Q.    DCD    22118400
        0x00001f50:    000f4240    @B..    DCD    1000000
    $t
    i.DrvSYS_IsProtectedRegLocked
    DrvSYS_IsProtectedRegLocked
        0x00001f54:    4802        .H      LDR      r0,[pc,#8] ; [0x1f60] = 0x50000100
        0x00001f56:    6800        .h      LDR      r0,[r0,#0]
        0x00001f58:    07c0        ..      LSLS     r0,r0,#31
        0x00001f5a:    0fc0        ..      LSRS     r0,r0,#31
        0x00001f5c:    4770        pG      BX       lr
    $d
        0x00001f5e:    0000        ..      DCW    0
        0x00001f60:    50000100    ...P    DCD    1342177536
    $t
    i.DrvSYS_Open
    DrvSYS_Open
        0x00001f64:    b5f8        ..      PUSH     {r3-r7,lr}
        0x00001f66:    4604        .F      MOV      r4,r0
        0x00001f68:    2500        .%      MOVS     r5,#0
        0x00001f6a:    4829        )H      LDR      r0,[pc,#164] ; [0x2010] = 0x2faf080
        0x00001f6c:    4284        .B      CMP      r4,r0
        0x00001f6e:    d802        ..      BHI      0x1f76 ; DrvSYS_Open + 18
        0x00001f70:    1040        @.      ASRS     r0,r0,#1
        0x00001f72:    4284        .B      CMP      r4,r0
        0x00001f74:    d201        ..      BCS      0x1f7a ; DrvSYS_Open + 22
        0x00001f76:    4827        'H      LDR      r0,[pc,#156] ; [0x2014] = 0xffff9606
        0x00001f78:    bdf8        ..      POP      {r3-r7,pc}
        0x00001f7a:    f7ffffeb    ....    BL       DrvSYS_IsProtectedRegLocked ; 0x1f54
        0x00001f7e:    2800        .(      CMP      r0,#0
        0x00001f80:    d102        ..      BNE      0x1f88 ; DrvSYS_Open + 36
        0x00001f82:    4824        $H      LDR      r0,[pc,#144] ; [0x2014] = 0xffff9606
        0x00001f84:    1c40        @.      ADDS     r0,r0,#1
        0x00001f86:    e7f7        ..      B        0x1f78 ; DrvSYS_Open + 20
        0x00001f88:    4823        #H      LDR      r0,[pc,#140] ; [0x2018] = 0x50000200
        0x00001f8a:    6a00        .j      LDR      r0,[r0,#0x20]
        0x00001f8c:    0300        ..      LSLS     r0,r0,#12
        0x00001f8e:    0fc0        ..      LSRS     r0,r0,#31
        0x00001f90:    d108        ..      BNE      0x1fa4 ; DrvSYS_Open + 64
        0x00001f92:    4821        !H      LDR      r0,[pc,#132] ; [0x2018] = 0x50000200
        0x00001f94:    6800        .h      LDR      r0,[r0,#0]
        0x00001f96:    0840        @.      LSRS     r0,r0,#1
        0x00001f98:    0040        @.      LSLS     r0,r0,#1
        0x00001f9a:    1c40        @.      ADDS     r0,r0,#1
        0x00001f9c:    491e        .I      LDR      r1,[pc,#120] ; [0x2018] = 0x50000200
        0x00001f9e:    6008        .`      STR      r0,[r1,#0]
        0x00001fa0:    2500        .%      MOVS     r5,#0
        0x00001fa2:    e007        ..      B        0x1fb4 ; DrvSYS_Open + 80
        0x00001fa4:    481c        .H      LDR      r0,[pc,#112] ; [0x2018] = 0x50000200
        0x00001fa6:    6800        .h      LDR      r0,[r0,#0]
        0x00001fa8:    2104        .!      MOVS     r1,#4
        0x00001faa:    4388        .C      BICS     r0,r0,r1
        0x00001fac:    1d00        ..      ADDS     r0,r0,#4
        0x00001fae:    491a        .I      LDR      r1,[pc,#104] ; [0x2018] = 0x50000200
        0x00001fb0:    6008        .`      STR      r0,[r1,#0]
        0x00001fb2:    2501        .%      MOVS     r5,#1
        0x00001fb4:    4621        !F      MOV      r1,r4
        0x00001fb6:    4628        (F      MOV      r0,r5
        0x00001fb8:    f7ffff6c    ..l.    BL       DrvSYS_GetPLLContent ; 0x1e94
        0x00001fbc:    4606        .F      MOV      r6,r0
        0x00001fbe:    2000        .       MOVS     r0,#0
        0x00001fc0:    9000        ..      STR      r0,[sp,#0]
        0x00001fc2:    e002        ..      B        0x1fca ; DrvSYS_Open + 102
        0x00001fc4:    9800        ..      LDR      r0,[sp,#0]
        0x00001fc6:    1c40        @.      ADDS     r0,r0,#1
        0x00001fc8:    9000        ..      STR      r0,[sp,#0]
        0x00001fca:    4914        .I      LDR      r1,[pc,#80] ; [0x201c] = 0x2710
        0x00001fcc:    9800        ..      LDR      r0,[sp,#0]
        0x00001fce:    4288        .B      CMP      r0,r1
        0x00001fd0:    d3f8        ..      BCC      0x1fc4 ; DrvSYS_Open + 96
        0x00001fd2:    4630        0F      MOV      r0,r6
        0x00001fd4:    f000f840    ..@.    BL       DrvSYS_SetPLLContent ; 0x2058
        0x00001fd8:    480f        .H      LDR      r0,[pc,#60] ; [0x2018] = 0x50000200
        0x00001fda:    6a00        .j      LDR      r0,[r0,#0x20]
        0x00001fdc:    2101        .!      MOVS     r1,#1
        0x00001fde:    0489        ..      LSLS     r1,r1,#18
        0x00001fe0:    4388        .C      BICS     r0,r0,r1
        0x00001fe2:    490d        .I      LDR      r1,[pc,#52] ; [0x2018] = 0x50000200
        0x00001fe4:    6208        .b      STR      r0,[r1,#0x20]
        0x00001fe6:    4608        .F      MOV      r0,r1
        0x00001fe8:    6a00        .j      LDR      r0,[r0,#0x20]
        0x00001fea:    01c9        ..      LSLS     r1,r1,#7
        0x00001fec:    4388        .C      BICS     r0,r0,r1
        0x00001fee:    490a        .I      LDR      r1,[pc,#40] ; [0x2018] = 0x50000200
        0x00001ff0:    6208        .b      STR      r0,[r1,#0x20]
        0x00001ff2:    2000        .       MOVS     r0,#0
        0x00001ff4:    9000        ..      STR      r0,[sp,#0]
        0x00001ff6:    e002        ..      B        0x1ffe ; DrvSYS_Open + 154
        0x00001ff8:    9800        ..      LDR      r0,[sp,#0]
        0x00001ffa:    1c40        @.      ADDS     r0,r0,#1
        0x00001ffc:    9000        ..      STR      r0,[sp,#0]
        0x00001ffe:    4907        .I      LDR      r1,[pc,#28] ; [0x201c] = 0x2710
        0x00002000:    9800        ..      LDR      r0,[sp,#0]
        0x00002002:    4288        .B      CMP      r0,r1
        0x00002004:    d3f8        ..      BCC      0x1ff8 ; DrvSYS_Open + 148
        0x00002006:    2002        .       MOVS     r0,#2
        0x00002008:    f000f80a    ....    BL       DrvSYS_SelectHCLKSource ; 0x2020
        0x0000200c:    2000        .       MOVS     r0,#0
        0x0000200e:    e7b3        ..      B        0x1f78 ; DrvSYS_Open + 20
    $d
        0x00002010:    02faf080    ....    DCD    50000000
        0x00002014:    ffff9606    ....    DCD    4294940166
        0x00002018:    50000200    ...P    DCD    1342177792
        0x0000201c:    00002710    .'..    DCD    10000
    $t
    i.DrvSYS_SelectHCLKSource
    DrvSYS_SelectHCLKSource
        0x00002020:    b510        ..      PUSH     {r4,lr}
        0x00002022:    4604        .F      MOV      r4,r0
        0x00002024:    2c07        .,      CMP      r4,#7
        0x00002026:    dc03        ..      BGT      0x2030 ; DrvSYS_SelectHCLKSource + 16
        0x00002028:    2c03        .,      CMP      r4,#3
        0x0000202a:    dd03        ..      BLE      0x2034 ; DrvSYS_SelectHCLKSource + 20
        0x0000202c:    2c07        .,      CMP      r4,#7
        0x0000202e:    da01        ..      BGE      0x2034 ; DrvSYS_SelectHCLKSource + 20
        0x00002030:    4807        .H      LDR      r0,[pc,#28] ; [0x2050] = 0xffff9603
        0x00002032:    bd10        ..      POP      {r4,pc}
        0x00002034:    4807        .H      LDR      r0,[pc,#28] ; [0x2054] = 0x50000200
        0x00002036:    6900        .i      LDR      r0,[r0,#0x10]
        0x00002038:    08c0        ..      LSRS     r0,r0,#3
        0x0000203a:    00c0        ..      LSLS     r0,r0,#3
        0x0000203c:    0761        a.      LSLS     r1,r4,#29
        0x0000203e:    0f49        I.      LSRS     r1,r1,#29
        0x00002040:    4308        .C      ORRS     r0,r0,r1
        0x00002042:    4904        .I      LDR      r1,[pc,#16] ; [0x2054] = 0x50000200
        0x00002044:    6108        .a      STR      r0,[r1,#0x10]
        0x00002046:    f000fd57    ..W.    BL       SystemCoreClockUpdate ; 0x2af8
        0x0000204a:    2000        .       MOVS     r0,#0
        0x0000204c:    e7f1        ..      B        0x2032 ; DrvSYS_SelectHCLKSource + 18
    $d
        0x0000204e:    0000        ..      DCW    0
        0x00002050:    ffff9603    ....    DCD    4294940163
        0x00002054:    50000200    ...P    DCD    1342177792
    $t
    i.DrvSYS_SetPLLContent
    DrvSYS_SetPLLContent
        0x00002058:    4911        .I      LDR      r1,[pc,#68] ; [0x20a0] = 0x50000200
        0x0000205a:    6a09        .j      LDR      r1,[r1,#0x20]
        0x0000205c:    0a49        I.      LSRS     r1,r1,#9
        0x0000205e:    0249        I.      LSLS     r1,r1,#9
        0x00002060:    05c2        ..      LSLS     r2,r0,#23
        0x00002062:    0dd2        ..      LSRS     r2,r2,#23
        0x00002064:    4311        .C      ORRS     r1,r1,r2
        0x00002066:    4a0e        .J      LDR      r2,[pc,#56] ; [0x20a0] = 0x50000200
        0x00002068:    6211        .b      STR      r1,[r2,#0x20]
        0x0000206a:    4611        .F      MOV      r1,r2
        0x0000206c:    6a09        .j      LDR      r1,[r1,#0x20]
        0x0000206e:    221f        ."      MOVS     r2,#0x1f
        0x00002070:    0252        R.      LSLS     r2,r2,#9
        0x00002072:    4391        .C      BICS     r1,r1,r2
        0x00002074:    0a42        B.      LSRS     r2,r0,#9
        0x00002076:    0252        R.      LSLS     r2,r2,#9
        0x00002078:    231f        .#      MOVS     r3,#0x1f
        0x0000207a:    025b        [.      LSLS     r3,r3,#9
        0x0000207c:    401a        .@      ANDS     r2,r2,r3
        0x0000207e:    4311        .C      ORRS     r1,r1,r2
        0x00002080:    4a07        .J      LDR      r2,[pc,#28] ; [0x20a0] = 0x50000200
        0x00002082:    6211        .b      STR      r1,[r2,#0x20]
        0x00002084:    4611        .F      MOV      r1,r2
        0x00002086:    6a09        .j      LDR      r1,[r1,#0x20]
        0x00002088:    2203        ."      MOVS     r2,#3
        0x0000208a:    0392        ..      LSLS     r2,r2,#14
        0x0000208c:    4391        .C      BICS     r1,r1,r2
        0x0000208e:    0b82        ..      LSRS     r2,r0,#14
        0x00002090:    0392        ..      LSLS     r2,r2,#14
        0x00002092:    2303        .#      MOVS     r3,#3
        0x00002094:    039b        ..      LSLS     r3,r3,#14
        0x00002096:    401a        .@      ANDS     r2,r2,r3
        0x00002098:    4311        .C      ORRS     r1,r1,r2
        0x0000209a:    4a01        .J      LDR      r2,[pc,#4] ; [0x20a0] = 0x50000200
        0x0000209c:    6211        .b      STR      r1,[r2,#0x20]
        0x0000209e:    4770        pG      BX       lr
    $d
        0x000020a0:    50000200    ...P    DCD    1342177792
    $t
    i.DrvUART_EnableInt
    DrvUART_EnableInt
        0x000020a4:    b5f8        ..      PUSH     {r3-r7,lr}
        0x000020a6:    4606        .F      MOV      r6,r0
        0x000020a8:    460d        .F      MOV      r5,r1
        0x000020aa:    4617        .F      MOV      r7,r2
        0x000020ac:    4839        9H      LDR      r0,[pc,#228] ; [0x2194] = 0x40050000
        0x000020ae:    1834        4.      ADDS     r4,r6,r0
        0x000020b0:    6860        `h      LDR      r0,[r4,#4]
        0x000020b2:    0840        @.      LSRS     r0,r0,#1
        0x000020b4:    0040        @.      LSLS     r0,r0,#1
        0x000020b6:    07e9        ..      LSLS     r1,r5,#31
        0x000020b8:    0fc9        ..      LSRS     r1,r1,#31
        0x000020ba:    4308        .C      ORRS     r0,r0,r1
        0x000020bc:    6060        ``      STR      r0,[r4,#4]
        0x000020be:    6860        `h      LDR      r0,[r4,#4]
        0x000020c0:    2102        .!      MOVS     r1,#2
        0x000020c2:    4388        .C      BICS     r0,r0,r1
        0x000020c4:    4029        )@      ANDS     r1,r1,r5
        0x000020c6:    0849        I.      LSRS     r1,r1,#1
        0x000020c8:    0049        I.      LSLS     r1,r1,#1
        0x000020ca:    2202        ."      MOVS     r2,#2
        0x000020cc:    4011        .@      ANDS     r1,r1,r2
        0x000020ce:    4308        .C      ORRS     r0,r0,r1
        0x000020d0:    6060        ``      STR      r0,[r4,#4]
        0x000020d2:    6860        `h      LDR      r0,[r4,#4]
        0x000020d4:    2104        .!      MOVS     r1,#4
        0x000020d6:    4388        .C      BICS     r0,r0,r1
        0x000020d8:    4029        )@      ANDS     r1,r1,r5
        0x000020da:    0889        ..      LSRS     r1,r1,#2
        0x000020dc:    0089        ..      LSLS     r1,r1,#2
        0x000020de:    2204        ."      MOVS     r2,#4
        0x000020e0:    4011        .@      ANDS     r1,r1,r2
        0x000020e2:    4308        .C      ORRS     r0,r0,r1
        0x000020e4:    6060        ``      STR      r0,[r4,#4]
        0x000020e6:    6860        `h      LDR      r0,[r4,#4]
        0x000020e8:    2108        .!      MOVS     r1,#8
        0x000020ea:    4388        .C      BICS     r0,r0,r1
        0x000020ec:    4029        )@      ANDS     r1,r1,r5
        0x000020ee:    08c9        ..      LSRS     r1,r1,#3
        0x000020f0:    00c9        ..      LSLS     r1,r1,#3
        0x000020f2:    2208        ."      MOVS     r2,#8
        0x000020f4:    4011        .@      ANDS     r1,r1,r2
        0x000020f6:    4308        .C      ORRS     r0,r0,r1
        0x000020f8:    6060        ``      STR      r0,[r4,#4]
        0x000020fa:    6860        `h      LDR      r0,[r4,#4]
        0x000020fc:    0211        ..      LSLS     r1,r2,#8
        0x000020fe:    4388        .C      BICS     r0,r0,r1
        0x00002100:    2110        .!      MOVS     r1,#0x10
        0x00002102:    4029        )@      ANDS     r1,r1,r5
        0x00002104:    0909        ..      LSRS     r1,r1,#4
        0x00002106:    02c9        ..      LSLS     r1,r1,#11
        0x00002108:    0212        ..      LSLS     r2,r2,#8
        0x0000210a:    4011        .@      ANDS     r1,r1,r2
        0x0000210c:    4308        .C      ORRS     r0,r0,r1
        0x0000210e:    6060        ``      STR      r0,[r4,#4]
        0x00002110:    6860        `h      LDR      r0,[r4,#4]
        0x00002112:    2110        .!      MOVS     r1,#0x10
        0x00002114:    4388        .C      BICS     r0,r0,r1
        0x00002116:    4029        )@      ANDS     r1,r1,r5
        0x00002118:    0909        ..      LSRS     r1,r1,#4
        0x0000211a:    0109        ..      LSLS     r1,r1,#4
        0x0000211c:    2210        ."      MOVS     r2,#0x10
        0x0000211e:    4011        .@      ANDS     r1,r1,r2
        0x00002120:    4308        .C      ORRS     r0,r0,r1
        0x00002122:    6060        ``      STR      r0,[r4,#4]
        0x00002124:    6860        `h      LDR      r0,[r4,#4]
        0x00002126:    2120         !      MOVS     r1,#0x20
        0x00002128:    4388        .C      BICS     r0,r0,r1
        0x0000212a:    4029        )@      ANDS     r1,r1,r5
        0x0000212c:    0949        I.      LSRS     r1,r1,#5
        0x0000212e:    0149        I.      LSLS     r1,r1,#5
        0x00002130:    2220         "      MOVS     r2,#0x20
        0x00002132:    4011        .@      ANDS     r1,r1,r2
        0x00002134:    4308        .C      ORRS     r0,r0,r1
        0x00002136:    6060        ``      STR      r0,[r4,#4]
        0x00002138:    6860        `h      LDR      r0,[r4,#4]
        0x0000213a:    2140        @!      MOVS     r1,#0x40
        0x0000213c:    4388        .C      BICS     r0,r0,r1
        0x0000213e:    2180        .!      MOVS     r1,#0x80
        0x00002140:    4029        )@      ANDS     r1,r1,r5
        0x00002142:    09c9        ..      LSRS     r1,r1,#7
        0x00002144:    0189        ..      LSLS     r1,r1,#6
        0x00002146:    2240        @"      MOVS     r2,#0x40
        0x00002148:    4011        .@      ANDS     r1,r1,r2
        0x0000214a:    4308        .C      ORRS     r0,r0,r1
        0x0000214c:    6060        ``      STR      r0,[r4,#4]
        0x0000214e:    6860        `h      LDR      r0,[r4,#4]
        0x00002150:    0091        ..      LSLS     r1,r2,#2
        0x00002152:    4388        .C      BICS     r0,r0,r1
        0x00002154:    4029        )@      ANDS     r1,r1,r5
        0x00002156:    0a09        ..      LSRS     r1,r1,#8
        0x00002158:    0209        ..      LSLS     r1,r1,#8
        0x0000215a:    0092        ..      LSLS     r2,r2,#2
        0x0000215c:    4011        .@      ANDS     r1,r1,r2
        0x0000215e:    4308        .C      ORRS     r0,r0,r1
        0x00002160:    6060        ``      STR      r0,[r4,#4]
        0x00002162:    2e00        ..      CMP      r6,#0
        0x00002164:    d105        ..      BNE      0x2172 ; DrvUART_EnableInt + 206
        0x00002166:    480c        .H      LDR      r0,[pc,#48] ; [0x2198] = 0x20000064
        0x00002168:    6007        .`      STR      r7,[r0,#0]
        0x0000216a:    200c        .       MOVS     r0,#0xc
        0x0000216c:    f000fca6    ....    BL       NVIC_EnableIRQ ; 0x2abc
        0x00002170:    e00e        ..      B        0x2190 ; DrvUART_EnableInt + 236
        0x00002172:    2001        .       MOVS     r0,#1
        0x00002174:    0500        ..      LSLS     r0,r0,#20
        0x00002176:    4286        .B      CMP      r6,r0
        0x00002178:    d105        ..      BNE      0x2186 ; DrvUART_EnableInt + 226
        0x0000217a:    4808        .H      LDR      r0,[pc,#32] ; [0x219c] = 0x20000068
        0x0000217c:    6007        .`      STR      r7,[r0,#0]
        0x0000217e:    200d        .       MOVS     r0,#0xd
        0x00002180:    f000fc9c    ....    BL       NVIC_EnableIRQ ; 0x2abc
        0x00002184:    e004        ..      B        0x2190 ; DrvUART_EnableInt + 236
        0x00002186:    4806        .H      LDR      r0,[pc,#24] ; [0x21a0] = 0x2000006c
        0x00002188:    6007        .`      STR      r7,[r0,#0]
        0x0000218a:    200c        .       MOVS     r0,#0xc
        0x0000218c:    f000fc96    ....    BL       NVIC_EnableIRQ ; 0x2abc
        0x00002190:    bdf8        ..      POP      {r3-r7,pc}
    $d
        0x00002192:    0000        ..      DCW    0
        0x00002194:    40050000    ...@    DCD    1074069504
        0x00002198:    20000064    d..     DCD    536871012
        0x0000219c:    20000068    h..     DCD    536871016
        0x000021a0:    2000006c    l..     DCD    536871020
    $t
    i.DrvUART_Open
    DrvUART_Open
        0x000021a4:    b5f8        ..      PUSH     {r3-r7,lr}
        0x000021a6:    4606        .F      MOV      r6,r0
        0x000021a8:    460c        .F      MOV      r4,r1
        0x000021aa:    2e00        ..      CMP      r6,#0
        0x000021ac:    d009        ..      BEQ      0x21c2 ; DrvUART_Open + 30
        0x000021ae:    2001        .       MOVS     r0,#1
        0x000021b0:    0500        ..      LSLS     r0,r0,#20
        0x000021b2:    4286        .B      CMP      r6,r0
        0x000021b4:    d005        ..      BEQ      0x21c2 ; DrvUART_Open + 30
        0x000021b6:    2041        A       MOVS     r0,#0x41
        0x000021b8:    0380        ..      LSLS     r0,r0,#14
        0x000021ba:    4286        .B      CMP      r6,r0
        0x000021bc:    d001        ..      BEQ      0x21c2 ; DrvUART_Open + 30
        0x000021be:    488f        .H      LDR      r0,[pc,#572] ; [0x23fc] = 0xffff9802
        0x000021c0:    bdf8        ..      POP      {r3-r7,pc}
        0x000021c2:    79a0        .y      LDRB     r0,[r4,#6]
        0x000021c4:    2800        .(      CMP      r0,#0
        0x000021c6:    d00e        ..      BEQ      0x21e6 ; DrvUART_Open + 66
        0x000021c8:    79a0        .y      LDRB     r0,[r4,#6]
        0x000021ca:    2803        .(      CMP      r0,#3
        0x000021cc:    d00b        ..      BEQ      0x21e6 ; DrvUART_Open + 66
        0x000021ce:    79a0        .y      LDRB     r0,[r4,#6]
        0x000021d0:    2801        .(      CMP      r0,#1
        0x000021d2:    d008        ..      BEQ      0x21e6 ; DrvUART_Open + 66
        0x000021d4:    79a0        .y      LDRB     r0,[r4,#6]
        0x000021d6:    2805        .(      CMP      r0,#5
        0x000021d8:    d005        ..      BEQ      0x21e6 ; DrvUART_Open + 66
        0x000021da:    79a0        .y      LDRB     r0,[r4,#6]
        0x000021dc:    2807        .(      CMP      r0,#7
        0x000021de:    d002        ..      BEQ      0x21e6 ; DrvUART_Open + 66
        0x000021e0:    4886        .H      LDR      r0,[pc,#536] ; [0x23fc] = 0xffff9802
        0x000021e2:    1c40        @.      ADDS     r0,r0,#1
        0x000021e4:    e7ec        ..      B        0x21c0 ; DrvUART_Open + 28
        0x000021e6:    7920         y      LDRB     r0,[r4,#4]
        0x000021e8:    2800        .(      CMP      r0,#0
        0x000021ea:    d00b        ..      BEQ      0x2204 ; DrvUART_Open + 96
        0x000021ec:    7920         y      LDRB     r0,[r4,#4]
        0x000021ee:    2801        .(      CMP      r0,#1
        0x000021f0:    d008        ..      BEQ      0x2204 ; DrvUART_Open + 96
        0x000021f2:    7920         y      LDRB     r0,[r4,#4]
        0x000021f4:    2802        .(      CMP      r0,#2
        0x000021f6:    d005        ..      BEQ      0x2204 ; DrvUART_Open + 96
        0x000021f8:    7920         y      LDRB     r0,[r4,#4]
        0x000021fa:    2803        .(      CMP      r0,#3
        0x000021fc:    d002        ..      BEQ      0x2204 ; DrvUART_Open + 96
        0x000021fe:    487f        .H      LDR      r0,[pc,#508] ; [0x23fc] = 0xffff9802
        0x00002200:    1c80        ..      ADDS     r0,r0,#2
        0x00002202:    e7dd        ..      B        0x21c0 ; DrvUART_Open + 28
        0x00002204:    7960        `y      LDRB     r0,[r4,#5]
        0x00002206:    2800        .(      CMP      r0,#0
        0x00002208:    d008        ..      BEQ      0x221c ; DrvUART_Open + 120
        0x0000220a:    7960        `y      LDRB     r0,[r4,#5]
        0x0000220c:    2801        .(      CMP      r0,#1
        0x0000220e:    d005        ..      BEQ      0x221c ; DrvUART_Open + 120
        0x00002210:    7960        `y      LDRB     r0,[r4,#5]
        0x00002212:    2801        .(      CMP      r0,#1
        0x00002214:    d002        ..      BEQ      0x221c ; DrvUART_Open + 120
        0x00002216:    4879        yH      LDR      r0,[pc,#484] ; [0x23fc] = 0xffff9802
        0x00002218:    1cc0        ..      ADDS     r0,r0,#3
        0x0000221a:    e7d1        ..      B        0x21c0 ; DrvUART_Open + 28
        0x0000221c:    79e0        .y      LDRB     r0,[r4,#7]
        0x0000221e:    2800        .(      CMP      r0,#0
        0x00002220:    d014        ..      BEQ      0x224c ; DrvUART_Open + 168
        0x00002222:    79e0        .y      LDRB     r0,[r4,#7]
        0x00002224:    2801        .(      CMP      r0,#1
        0x00002226:    d011        ..      BEQ      0x224c ; DrvUART_Open + 168
        0x00002228:    79e0        .y      LDRB     r0,[r4,#7]
        0x0000222a:    2802        .(      CMP      r0,#2
        0x0000222c:    d00e        ..      BEQ      0x224c ; DrvUART_Open + 168
        0x0000222e:    79e0        .y      LDRB     r0,[r4,#7]
        0x00002230:    2803        .(      CMP      r0,#3
        0x00002232:    d00b        ..      BEQ      0x224c ; DrvUART_Open + 168
        0x00002234:    79e0        .y      LDRB     r0,[r4,#7]
        0x00002236:    2804        .(      CMP      r0,#4
        0x00002238:    d008        ..      BEQ      0x224c ; DrvUART_Open + 168
        0x0000223a:    79e0        .y      LDRB     r0,[r4,#7]
        0x0000223c:    2805        .(      CMP      r0,#5
        0x0000223e:    d005        ..      BEQ      0x224c ; DrvUART_Open + 168
        0x00002240:    79e0        .y      LDRB     r0,[r4,#7]
        0x00002242:    2806        .(      CMP      r0,#6
        0x00002244:    d002        ..      BEQ      0x224c ; DrvUART_Open + 168
        0x00002246:    486d        mH      LDR      r0,[pc,#436] ; [0x23fc] = 0xffff9802
        0x00002248:    1d00        ..      ADDS     r0,r0,#4
        0x0000224a:    e7b9        ..      B        0x21c0 ; DrvUART_Open + 28
        0x0000224c:    2e00        ..      CMP      r6,#0
        0x0000224e:    d11a        ..      BNE      0x2286 ; DrvUART_Open + 226
        0x00002250:    2005        .       MOVS     r0,#5
        0x00002252:    0700        ..      LSLS     r0,r0,#28
        0x00002254:    68c0        .h      LDR      r0,[r0,#0xc]
        0x00002256:    2101        .!      MOVS     r1,#1
        0x00002258:    0409        ..      LSLS     r1,r1,#16
        0x0000225a:    4388        .C      BICS     r0,r0,r1
        0x0000225c:    1840        @.      ADDS     r0,r0,r1
        0x0000225e:    2105        .!      MOVS     r1,#5
        0x00002260:    0709        ..      LSLS     r1,r1,#28
        0x00002262:    60c8        .`      STR      r0,[r1,#0xc]
        0x00002264:    4608        .F      MOV      r0,r1
        0x00002266:    68c0        .h      LDR      r0,[r0,#0xc]
        0x00002268:    2101        .!      MOVS     r1,#1
        0x0000226a:    0409        ..      LSLS     r1,r1,#16
        0x0000226c:    4388        .C      BICS     r0,r0,r1
        0x0000226e:    2105        .!      MOVS     r1,#5
        0x00002270:    0709        ..      LSLS     r1,r1,#28
        0x00002272:    60c8        .`      STR      r0,[r1,#0xc]
        0x00002274:    4862        bH      LDR      r0,[pc,#392] ; [0x2400] = 0x50000200
        0x00002276:    6880        .h      LDR      r0,[r0,#8]
        0x00002278:    2101        .!      MOVS     r1,#1
        0x0000227a:    0409        ..      LSLS     r1,r1,#16
        0x0000227c:    4388        .C      BICS     r0,r0,r1
        0x0000227e:    1840        @.      ADDS     r0,r0,r1
        0x00002280:    495f        _I      LDR      r1,[pc,#380] ; [0x2400] = 0x50000200
        0x00002282:    6088        .`      STR      r0,[r1,#8]
        0x00002284:    e035        5.      B        0x22f2 ; DrvUART_Open + 334
        0x00002286:    2001        .       MOVS     r0,#1
        0x00002288:    0500        ..      LSLS     r0,r0,#20
        0x0000228a:    4286        .B      CMP      r6,r0
        0x0000228c:    d117        ..      BNE      0x22be ; DrvUART_Open + 282
        0x0000228e:    2005        .       MOVS     r0,#5
        0x00002290:    0700        ..      LSLS     r0,r0,#28
        0x00002292:    68c0        .h      LDR      r0,[r0,#0xc]
        0x00002294:    10f1        ..      ASRS     r1,r6,#3
        0x00002296:    4388        .C      BICS     r0,r0,r1
        0x00002298:    1840        @.      ADDS     r0,r0,r1
        0x0000229a:    2105        .!      MOVS     r1,#5
        0x0000229c:    0709        ..      LSLS     r1,r1,#28
        0x0000229e:    60c8        .`      STR      r0,[r1,#0xc]
        0x000022a0:    4608        .F      MOV      r0,r1
        0x000022a2:    68c0        .h      LDR      r0,[r0,#0xc]
        0x000022a4:    10f1        ..      ASRS     r1,r6,#3
        0x000022a6:    4388        .C      BICS     r0,r0,r1
        0x000022a8:    2105        .!      MOVS     r1,#5
        0x000022aa:    0709        ..      LSLS     r1,r1,#28
        0x000022ac:    60c8        .`      STR      r0,[r1,#0xc]
        0x000022ae:    4854        TH      LDR      r0,[pc,#336] ; [0x2400] = 0x50000200
        0x000022b0:    6880        .h      LDR      r0,[r0,#8]
        0x000022b2:    10f1        ..      ASRS     r1,r6,#3
        0x000022b4:    4388        .C      BICS     r0,r0,r1
        0x000022b6:    1840        @.      ADDS     r0,r0,r1
        0x000022b8:    4951        QI      LDR      r1,[pc,#324] ; [0x2400] = 0x50000200
        0x000022ba:    6088        .`      STR      r0,[r1,#8]
        0x000022bc:    e019        ..      B        0x22f2 ; DrvUART_Open + 334
        0x000022be:    2005        .       MOVS     r0,#5
        0x000022c0:    0700        ..      LSLS     r0,r0,#28
        0x000022c2:    68c0        .h      LDR      r0,[r0,#0xc]
        0x000022c4:    2101        .!      MOVS     r1,#1
        0x000022c6:    0489        ..      LSLS     r1,r1,#18
        0x000022c8:    4388        .C      BICS     r0,r0,r1
        0x000022ca:    1840        @.      ADDS     r0,r0,r1
        0x000022cc:    2105        .!      MOVS     r1,#5
        0x000022ce:    0709        ..      LSLS     r1,r1,#28
        0x000022d0:    60c8        .`      STR      r0,[r1,#0xc]
        0x000022d2:    4608        .F      MOV      r0,r1
        0x000022d4:    68c0        .h      LDR      r0,[r0,#0xc]
        0x000022d6:    2101        .!      MOVS     r1,#1
        0x000022d8:    0489        ..      LSLS     r1,r1,#18
        0x000022da:    4388        .C      BICS     r0,r0,r1
        0x000022dc:    2105        .!      MOVS     r1,#5
        0x000022de:    0709        ..      LSLS     r1,r1,#28
        0x000022e0:    60c8        .`      STR      r0,[r1,#0xc]
        0x000022e2:    4847        GH      LDR      r0,[pc,#284] ; [0x2400] = 0x50000200
        0x000022e4:    6880        .h      LDR      r0,[r0,#8]
        0x000022e6:    2101        .!      MOVS     r1,#1
        0x000022e8:    0489        ..      LSLS     r1,r1,#18
        0x000022ea:    4388        .C      BICS     r0,r0,r1
        0x000022ec:    1840        @.      ADDS     r0,r0,r1
        0x000022ee:    4944        DI      LDR      r1,[pc,#272] ; [0x2400] = 0x50000200
        0x000022f0:    6088        .`      STR      r0,[r1,#8]
        0x000022f2:    4844        DH      LDR      r0,[pc,#272] ; [0x2404] = 0x40050000
        0x000022f4:    1835        5.      ADDS     r5,r6,r0
        0x000022f6:    68a8        .h      LDR      r0,[r5,#8]
        0x000022f8:    2104        .!      MOVS     r1,#4
        0x000022fa:    4388        .C      BICS     r0,r0,r1
        0x000022fc:    1d00        ..      ADDS     r0,r0,#4
        0x000022fe:    60a8        .`      STR      r0,[r5,#8]
        0x00002300:    68a8        .h      LDR      r0,[r5,#8]
        0x00002302:    2102        .!      MOVS     r1,#2
        0x00002304:    4388        .C      BICS     r0,r0,r1
        0x00002306:    1c80        ..      ADDS     r0,r0,#2
        0x00002308:    60a8        .`      STR      r0,[r5,#8]
        0x0000230a:    68a8        .h      LDR      r0,[r5,#8]
        0x0000230c:    21f0        .!      MOVS     r1,#0xf0
        0x0000230e:    4388        .C      BICS     r0,r0,r1
        0x00002310:    79e1        .y      LDRB     r1,[r4,#7]
        0x00002312:    0109        ..      LSLS     r1,r1,#4
        0x00002314:    22f0        ."      MOVS     r2,#0xf0
        0x00002316:    4011        .@      ANDS     r1,r1,r2
        0x00002318:    4308        .C      ORRS     r0,r0,r1
        0x0000231a:    60a8        .`      STR      r0,[r5,#8]
        0x0000231c:    68e8        .h      LDR      r0,[r5,#0xc]
        0x0000231e:    2120         !      MOVS     r1,#0x20
        0x00002320:    4388        .C      BICS     r0,r0,r1
        0x00002322:    79a1        .y      LDRB     r1,[r4,#6]
        0x00002324:    2204        ."      MOVS     r2,#4
        0x00002326:    4011        .@      ANDS     r1,r1,r2
        0x00002328:    0889        ..      LSRS     r1,r1,#2
        0x0000232a:    0149        I.      LSLS     r1,r1,#5
        0x0000232c:    2220         "      MOVS     r2,#0x20
        0x0000232e:    4011        .@      ANDS     r1,r1,r2
        0x00002330:    4308        .C      ORRS     r0,r0,r1
        0x00002332:    60e8        .`      STR      r0,[r5,#0xc]
        0x00002334:    68e8        .h      LDR      r0,[r5,#0xc]
        0x00002336:    2110        .!      MOVS     r1,#0x10
        0x00002338:    4388        .C      BICS     r0,r0,r1
        0x0000233a:    79a1        .y      LDRB     r1,[r4,#6]
        0x0000233c:    2202        ."      MOVS     r2,#2
        0x0000233e:    4011        .@      ANDS     r1,r1,r2
        0x00002340:    0849        I.      LSRS     r1,r1,#1
        0x00002342:    0109        ..      LSLS     r1,r1,#4
        0x00002344:    2210        ."      MOVS     r2,#0x10
        0x00002346:    4011        .@      ANDS     r1,r1,r2
        0x00002348:    4308        .C      ORRS     r0,r0,r1
        0x0000234a:    60e8        .`      STR      r0,[r5,#0xc]
        0x0000234c:    68e8        .h      LDR      r0,[r5,#0xc]
        0x0000234e:    2108        .!      MOVS     r1,#8
        0x00002350:    4388        .C      BICS     r0,r0,r1
        0x00002352:    79a1        .y      LDRB     r1,[r4,#6]
        0x00002354:    00c9        ..      LSLS     r1,r1,#3
        0x00002356:    2208        ."      MOVS     r2,#8
        0x00002358:    4011        .@      ANDS     r1,r1,r2
        0x0000235a:    4308        .C      ORRS     r0,r0,r1
        0x0000235c:    60e8        .`      STR      r0,[r5,#0xc]
        0x0000235e:    68e8        .h      LDR      r0,[r5,#0xc]
        0x00002360:    0880        ..      LSRS     r0,r0,#2
        0x00002362:    0080        ..      LSLS     r0,r0,#2
        0x00002364:    7921        !y      LDRB     r1,[r4,#4]
        0x00002366:    0789        ..      LSLS     r1,r1,#30
        0x00002368:    0f89        ..      LSRS     r1,r1,#30
        0x0000236a:    4308        .C      ORRS     r0,r0,r1
        0x0000236c:    60e8        .`      STR      r0,[r5,#0xc]
        0x0000236e:    68e8        .h      LDR      r0,[r5,#0xc]
        0x00002370:    2104        .!      MOVS     r1,#4
        0x00002372:    4388        .C      BICS     r0,r0,r1
        0x00002374:    7961        ay      LDRB     r1,[r4,#5]
        0x00002376:    0089        ..      LSLS     r1,r1,#2
        0x00002378:    2204        ."      MOVS     r2,#4
        0x0000237a:    4011        .@      ANDS     r1,r1,r2
        0x0000237c:    4308        .C      ORRS     r0,r0,r1
        0x0000237e:    60e8        .`      STR      r0,[r5,#0xc]
        0x00002380:    6a28        (j      LDR      r0,[r5,#0x20]
        0x00002382:    0a00        ..      LSRS     r0,r0,#8
        0x00002384:    0200        ..      LSLS     r0,r0,#8
        0x00002386:    7a21        !z      LDRB     r1,[r4,#8]
        0x00002388:    4308        .C      ORRS     r0,r0,r1
        0x0000238a:    6228        (b      STR      r0,[r5,#0x20]
        0x0000238c:    481c        .H      LDR      r0,[pc,#112] ; [0x2400] = 0x50000200
        0x0000238e:    6800        .h      LDR      r0,[r0,#0]
        0x00002390:    07c0        ..      LSLS     r0,r0,#31
        0x00002392:    0fc0        ..      LSRS     r0,r0,#31
        0x00002394:    d007        ..      BEQ      0x23a6 ; DrvUART_Open + 514
        0x00002396:    481a        .H      LDR      r0,[pc,#104] ; [0x2400] = 0x50000200
        0x00002398:    6940        @i      LDR      r0,[r0,#0x14]
        0x0000239a:    2103        .!      MOVS     r1,#3
        0x0000239c:    0609        ..      LSLS     r1,r1,#24
        0x0000239e:    4388        .C      BICS     r0,r0,r1
        0x000023a0:    4917        .I      LDR      r1,[pc,#92] ; [0x2400] = 0x50000200
        0x000023a2:    6148        Ha      STR      r0,[r1,#0x14]
        0x000023a4:    e020         .      B        0x23e8 ; DrvUART_Open + 580
        0x000023a6:    4816        .H      LDR      r0,[pc,#88] ; [0x2400] = 0x50000200
        0x000023a8:    6a00        .j      LDR      r0,[r0,#0x20]
        0x000023aa:    03c0        ..      LSLS     r0,r0,#15
        0x000023ac:    0fc0        ..      LSRS     r0,r0,#31
        0x000023ae:    d10a        ..      BNE      0x23c6 ; DrvUART_Open + 546
        0x000023b0:    4813        .H      LDR      r0,[pc,#76] ; [0x2400] = 0x50000200
        0x000023b2:    6940        @i      LDR      r0,[r0,#0x14]
        0x000023b4:    2103        .!      MOVS     r1,#3
        0x000023b6:    0609        ..      LSLS     r1,r1,#24
        0x000023b8:    4388        .C      BICS     r0,r0,r1
        0x000023ba:    2101        .!      MOVS     r1,#1
        0x000023bc:    0609        ..      LSLS     r1,r1,#24
        0x000023be:    1840        @.      ADDS     r0,r0,r1
        0x000023c0:    490f        .I      LDR      r1,[pc,#60] ; [0x2400] = 0x50000200
        0x000023c2:    6148        Ha      STR      r0,[r1,#0x14]
        0x000023c4:    e010        ..      B        0x23e8 ; DrvUART_Open + 580
        0x000023c6:    480e        .H      LDR      r0,[pc,#56] ; [0x2400] = 0x50000200
        0x000023c8:    6800        .h      LDR      r0,[r0,#0]
        0x000023ca:    0740        @.      LSLS     r0,r0,#29
        0x000023cc:    0fc0        ..      LSRS     r0,r0,#31
        0x000023ce:    d008        ..      BEQ      0x23e2 ; DrvUART_Open + 574
        0x000023d0:    480b        .H      LDR      r0,[pc,#44] ; [0x2400] = 0x50000200
        0x000023d2:    6940        @i      LDR      r0,[r0,#0x14]
        0x000023d4:    2103        .!      MOVS     r1,#3
        0x000023d6:    0609        ..      LSLS     r1,r1,#24
        0x000023d8:    4388        .C      BICS     r0,r0,r1
        0x000023da:    1840        @.      ADDS     r0,r0,r1
        0x000023dc:    4908        .I      LDR      r1,[pc,#32] ; [0x2400] = 0x50000200
        0x000023de:    6148        Ha      STR      r0,[r1,#0x14]
        0x000023e0:    e002        ..      B        0x23e8 ; DrvUART_Open + 580
        0x000023e2:    4806        .H      LDR      r0,[pc,#24] ; [0x23fc] = 0xffff9802
        0x000023e4:    1d80        ..      ADDS     r0,r0,#6
        0x000023e6:    e6eb        ..      B        0x21c0 ; DrvUART_Open + 28
        0x000023e8:    f000f89a    ....    BL       GetUartClk ; 0x2520
        0x000023ec:    4607        .F      MOV      r7,r0
        0x000023ee:    4632        2F      MOV      r2,r6
        0x000023f0:    6821        !h      LDR      r1,[r4,#0]
        0x000023f2:    f7feffb3    ....    BL       BaudRateCalculator ; 0x135c
        0x000023f6:    2000        .       MOVS     r0,#0
        0x000023f8:    e6e2        ..      B        0x21c0 ; DrvUART_Open + 28
    $d
        0x000023fa:    0000        ..      DCW    0
        0x000023fc:    ffff9802    ....    DCD    4294940674
        0x00002400:    50000200    ...P    DCD    1342177792
        0x00002404:    40050000    ...@    DCD    1074069504
    $t
    i.DrvUART_Write
    DrvUART_Write
        0x00002408:    b570        p.      PUSH     {r4-r6,lr}
        0x0000240a:    4603        .F      MOV      r3,r0
        0x0000240c:    460c        .F      MOV      r4,r1
        0x0000240e:    480c        .H      LDR      r0,[pc,#48] ; [0x2440] = 0x40050000
        0x00002410:    181d        ..      ADDS     r5,r3,r0
        0x00002412:    2100        .!      MOVS     r1,#0
        0x00002414:    e00f        ..      B        0x2436 ; DrvUART_Write + 46
        0x00002416:    2600        .&      MOVS     r6,#0
        0x00002418:    e006        ..      B        0x2428 ; DrvUART_Write + 32
        0x0000241a:    1c76        v.      ADDS     r6,r6,#1
        0x0000241c:    2001        .       MOVS     r0,#1
        0x0000241e:    0780        ..      LSLS     r0,r0,#30
        0x00002420:    4286        .B      CMP      r6,r0
        0x00002422:    d301        ..      BCC      0x2428 ; DrvUART_Write + 32
        0x00002424:    4807        .H      LDR      r0,[pc,#28] ; [0x2444] = 0xffff9801
        0x00002426:    bd70        p.      POP      {r4-r6,pc}
        0x00002428:    69a8        .i      LDR      r0,[r5,#0x18]
        0x0000242a:    00c0        ..      LSLS     r0,r0,#3
        0x0000242c:    0fc0        ..      LSRS     r0,r0,#31
        0x0000242e:    d0f4        ..      BEQ      0x241a ; DrvUART_Write + 18
        0x00002430:    5c60        `\      LDRB     r0,[r4,r1]
        0x00002432:    6028        (`      STR      r0,[r5,#0]
        0x00002434:    1c49        I.      ADDS     r1,r1,#1
        0x00002436:    4291        .B      CMP      r1,r2
        0x00002438:    d3ed        ..      BCC      0x2416 ; DrvUART_Write + 14
        0x0000243a:    2000        .       MOVS     r0,#0
        0x0000243c:    e7f3        ..      B        0x2426 ; DrvUART_Write + 30
    $d
        0x0000243e:    0000        ..      DCW    0
        0x00002440:    40050000    ...@    DCD    1074069504
        0x00002444:    ffff9801    ....    DCD    4294940673
    $t
    i.EINT0_IRQHandler
    EINT0_IRQHandler
        0x00002448:    b510        ..      PUSH     {r4,lr}
        0x0000244a:    2001        .       MOVS     r0,#1
        0x0000244c:    0380        ..      LSLS     r0,r0,#14
        0x0000244e:    4905        .I      LDR      r1,[pc,#20] ; [0x2464] = 0x50004040
        0x00002450:    6208        .b      STR      r0,[r1,#0x20]
        0x00002452:    4805        .H      LDR      r0,[pc,#20] ; [0x2468] = 0x20000048
        0x00002454:    6800        .h      LDR      r0,[r0,#0]
        0x00002456:    2800        .(      CMP      r0,#0
        0x00002458:    d002        ..      BEQ      0x2460 ; EINT0_IRQHandler + 24
        0x0000245a:    4803        .H      LDR      r0,[pc,#12] ; [0x2468] = 0x20000048
        0x0000245c:    6800        .h      LDR      r0,[r0,#0]
        0x0000245e:    4780        .G      BLX      r0
        0x00002460:    bd10        ..      POP      {r4,pc}
    $d
        0x00002462:    0000        ..      DCW    0
        0x00002464:    50004040    @@.P    DCD    1342193728
        0x00002468:    20000048    H..     DCD    536870984
    $t
    i.EINT1_IRQHandler
    EINT1_IRQHandler
        0x0000246c:    b510        ..      PUSH     {r4,lr}
        0x0000246e:    2001        .       MOVS     r0,#1
        0x00002470:    03c0        ..      LSLS     r0,r0,#15
        0x00002472:    4905        .I      LDR      r1,[pc,#20] ; [0x2488] = 0x50004040
        0x00002474:    6208        .b      STR      r0,[r1,#0x20]
        0x00002476:    4805        .H      LDR      r0,[pc,#20] ; [0x248c] = 0x2000004c
        0x00002478:    6800        .h      LDR      r0,[r0,#0]
        0x0000247a:    2800        .(      CMP      r0,#0
        0x0000247c:    d002        ..      BEQ      0x2484 ; EINT1_IRQHandler + 24
        0x0000247e:    4803        .H      LDR      r0,[pc,#12] ; [0x248c] = 0x2000004c
        0x00002480:    6800        .h      LDR      r0,[r0,#0]
        0x00002482:    4780        .G      BLX      r0
        0x00002484:    bd10        ..      POP      {r4,pc}
    $d
        0x00002486:    0000        ..      DCW    0
        0x00002488:    50004040    @@.P    DCD    1342193728
        0x0000248c:    2000004c    L..     DCD    536870988
    $t
    i.GPAB_IRQHandler
    GPAB_IRQHandler
        0x00002490:    b51c        ..      PUSH     {r2-r4,lr}
        0x00002492:    480e        .H      LDR      r0,[pc,#56] ; [0x24cc] = 0x50004000
        0x00002494:    6a00        .j      LDR      r0,[r0,#0x20]
        0x00002496:    9001        ..      STR      r0,[sp,#4]
        0x00002498:    480c        .H      LDR      r0,[pc,#48] ; [0x24cc] = 0x50004000
        0x0000249a:    3040        @0      ADDS     r0,r0,#0x40
        0x0000249c:    6a00        .j      LDR      r0,[r0,#0x20]
        0x0000249e:    9000        ..      STR      r0,[sp,#0]
        0x000024a0:    2103        .!      MOVS     r1,#3
        0x000024a2:    0389        ..      LSLS     r1,r1,#14
        0x000024a4:    9800        ..      LDR      r0,[sp,#0]
        0x000024a6:    4388        .C      BICS     r0,r0,r1
        0x000024a8:    9000        ..      STR      r0,[sp,#0]
        0x000024aa:    4908        .I      LDR      r1,[pc,#32] ; [0x24cc] = 0x50004000
        0x000024ac:    9801        ..      LDR      r0,[sp,#4]
        0x000024ae:    6208        .b      STR      r0,[r1,#0x20]
        0x000024b0:    4906        .I      LDR      r1,[pc,#24] ; [0x24cc] = 0x50004000
        0x000024b2:    3140        @1      ADDS     r1,r1,#0x40
        0x000024b4:    9800        ..      LDR      r0,[sp,#0]
        0x000024b6:    6208        .b      STR      r0,[r1,#0x20]
        0x000024b8:    4805        .H      LDR      r0,[pc,#20] ; [0x24d0] = 0x20000040
        0x000024ba:    6800        .h      LDR      r0,[r0,#0]
        0x000024bc:    2800        .(      CMP      r0,#0
        0x000024be:    d004        ..      BEQ      0x24ca ; GPAB_IRQHandler + 58
        0x000024c0:    4a03        .J      LDR      r2,[pc,#12] ; [0x24d0] = 0x20000040
        0x000024c2:    9900        ..      LDR      r1,[sp,#0]
        0x000024c4:    9801        ..      LDR      r0,[sp,#4]
        0x000024c6:    6812        .h      LDR      r2,[r2,#0]
        0x000024c8:    4790        .G      BLX      r2
        0x000024ca:    bd1c        ..      POP      {r2-r4,pc}
    $d
        0x000024cc:    50004000    .@.P    DCD    1342193664
        0x000024d0:    20000040    @..     DCD    536870976
    $t
    i.GPCDE_IRQHandler
    GPCDE_IRQHandler
        0x000024d4:    b50e        ..      PUSH     {r1-r3,lr}
        0x000024d6:    4810        .H      LDR      r0,[pc,#64] ; [0x2518] = 0x50004080
        0x000024d8:    6a00        .j      LDR      r0,[r0,#0x20]
        0x000024da:    9002        ..      STR      r0,[sp,#8]
        0x000024dc:    480e        .H      LDR      r0,[pc,#56] ; [0x2518] = 0x50004080
        0x000024de:    3040        @0      ADDS     r0,r0,#0x40
        0x000024e0:    6a00        .j      LDR      r0,[r0,#0x20]
        0x000024e2:    9001        ..      STR      r0,[sp,#4]
        0x000024e4:    480c        .H      LDR      r0,[pc,#48] ; [0x2518] = 0x50004080
        0x000024e6:    3080        .0      ADDS     r0,r0,#0x80
        0x000024e8:    6a00        .j      LDR      r0,[r0,#0x20]
        0x000024ea:    9000        ..      STR      r0,[sp,#0]
        0x000024ec:    490a        .I      LDR      r1,[pc,#40] ; [0x2518] = 0x50004080
        0x000024ee:    9802        ..      LDR      r0,[sp,#8]
        0x000024f0:    6208        .b      STR      r0,[r1,#0x20]
        0x000024f2:    4909        .I      LDR      r1,[pc,#36] ; [0x2518] = 0x50004080
        0x000024f4:    3140        @1      ADDS     r1,r1,#0x40
        0x000024f6:    9801        ..      LDR      r0,[sp,#4]
        0x000024f8:    6208        .b      STR      r0,[r1,#0x20]
        0x000024fa:    4907        .I      LDR      r1,[pc,#28] ; [0x2518] = 0x50004080
        0x000024fc:    3180        .1      ADDS     r1,r1,#0x80
        0x000024fe:    9800        ..      LDR      r0,[sp,#0]
        0x00002500:    6208        .b      STR      r0,[r1,#0x20]
        0x00002502:    4806        .H      LDR      r0,[pc,#24] ; [0x251c] = 0x20000044
        0x00002504:    6800        .h      LDR      r0,[r0,#0]
        0x00002506:    2800        .(      CMP      r0,#0
        0x00002508:    d005        ..      BEQ      0x2516 ; GPCDE_IRQHandler + 66
        0x0000250a:    4b04        .K      LDR      r3,[pc,#16] ; [0x251c] = 0x20000044
        0x0000250c:    9a00        ..      LDR      r2,[sp,#0]
        0x0000250e:    9901        ..      LDR      r1,[sp,#4]
        0x00002510:    9802        ..      LDR      r0,[sp,#8]
        0x00002512:    681b        .h      LDR      r3,[r3,#0]
        0x00002514:    4798        .G      BLX      r3
        0x00002516:    bd0e        ..      POP      {r1-r3,pc}
    $d
        0x00002518:    50004080    .@.P    DCD    1342193792
        0x0000251c:    20000044    D..     DCD    536870980
    $t
    i.GetUartClk
    GetUartClk
        0x00002520:    b570        p.      PUSH     {r4-r6,lr}
        0x00002522:    2400        .$      MOVS     r4,#0
        0x00002524:    480e        .H      LDR      r0,[pc,#56] ; [0x2560] = 0x50000200
        0x00002526:    6980        .i      LDR      r0,[r0,#0x18]
        0x00002528:    0500        ..      LSLS     r0,r0,#20
        0x0000252a:    0f05        ..      LSRS     r5,r0,#28
        0x0000252c:    480c        .H      LDR      r0,[pc,#48] ; [0x2560] = 0x50000200
        0x0000252e:    6940        @i      LDR      r0,[r0,#0x14]
        0x00002530:    0180        ..      LSLS     r0,r0,#6
        0x00002532:    0f80        ..      LSRS     r0,r0,#30
        0x00002534:    d103        ..      BNE      0x253e ; GetUartClk + 30
        0x00002536:    f7fffc39    ..9.    BL       DrvSYS_GetExtClockFreq ; 0x1dac
        0x0000253a:    4604        .F      MOV      r4,r0
        0x0000253c:    e00a        ..      B        0x2554 ; GetUartClk + 52
        0x0000253e:    4808        .H      LDR      r0,[pc,#32] ; [0x2560] = 0x50000200
        0x00002540:    6940        @i      LDR      r0,[r0,#0x14]
        0x00002542:    0180        ..      LSLS     r0,r0,#6
        0x00002544:    0f80        ..      LSRS     r0,r0,#30
        0x00002546:    2801        .(      CMP      r0,#1
        0x00002548:    d103        ..      BNE      0x2552 ; GetUartClk + 50
        0x0000254a:    f7fffc69    ..i.    BL       DrvSYS_GetPLLClockFreq ; 0x1e20
        0x0000254e:    4604        .F      MOV      r4,r0
        0x00002550:    e000        ..      B        0x2554 ; GetUartClk + 52
        0x00002552:    4c04        .L      LDR      r4,[pc,#16] ; [0x2564] = 0x1518000
        0x00002554:    1c69        i.      ADDS     r1,r5,#1
        0x00002556:    4620         F      MOV      r0,r4
        0x00002558:    f7fdff7a    ..z.    BL       __aeabi_uidiv ; 0x450
        0x0000255c:    bd70        p.      POP      {r4-r6,pc}
    $d
        0x0000255e:    0000        ..      DCW    0
        0x00002560:    50000200    ...P    DCD    1342177792
        0x00002564:    01518000    ..Q.    DCD    22118400
    $t
    i.I2C_Ctrl
    I2C_Ctrl
        0x00002568:    b570        p.      PUSH     {r4-r6,lr}
        0x0000256a:    4604        .F      MOV      r4,r0
        0x0000256c:    2000        .       MOVS     r0,#0
        0x0000256e:    2c00        .,      CMP      r4,#0
        0x00002570:    d001        ..      BEQ      0x2576 ; I2C_Ctrl + 14
        0x00002572:    2520         %      MOVS     r5,#0x20
        0x00002574:    4328        (C      ORRS     r0,r0,r5
        0x00002576:    2900        .)      CMP      r1,#0
        0x00002578:    d001        ..      BEQ      0x257e ; I2C_Ctrl + 22
        0x0000257a:    2510        .%      MOVS     r5,#0x10
        0x0000257c:    4328        (C      ORRS     r0,r0,r5
        0x0000257e:    2a00        .*      CMP      r2,#0
        0x00002580:    d001        ..      BEQ      0x2586 ; I2C_Ctrl + 30
        0x00002582:    2508        .%      MOVS     r5,#8
        0x00002584:    4328        (C      ORRS     r0,r0,r5
        0x00002586:    2b00        .+      CMP      r3,#0
        0x00002588:    d001        ..      BEQ      0x258e ; I2C_Ctrl + 38
        0x0000258a:    2504        .%      MOVS     r5,#4
        0x0000258c:    4328        (C      ORRS     r0,r0,r5
        0x0000258e:    4d04        .M      LDR      r5,[pc,#16] ; [0x25a0] = 0x40020000
        0x00002590:    682d        -h      LDR      r5,[r5,#0]
        0x00002592:    263c        <&      MOVS     r6,#0x3c
        0x00002594:    43b5        .C      BICS     r5,r5,r6
        0x00002596:    4305        .C      ORRS     r5,r5,r0
        0x00002598:    4e01        .N      LDR      r6,[pc,#4] ; [0x25a0] = 0x40020000
        0x0000259a:    6035        5`      STR      r5,[r6,#0]
        0x0000259c:    bd70        p.      POP      {r4-r6,pc}
    $d
        0x0000259e:    0000        ..      DCW    0
        0x000025a0:    40020000    ...@    DCD    1073872896
    $t
    i.I2C_Open
    I2C_Open
        0x000025a4:    b570        p.      PUSH     {r4-r6,lr}
        0x000025a6:    4604        .F      MOV      r4,r0
        0x000025a8:    f7fffc04    ....    BL       DrvSYS_GetHCLKFreq ; 0x1db4
        0x000025ac:    491b        .I      LDR      r1,[pc,#108] ; [0x261c] = 0x20000000
        0x000025ae:    6008        .`      STR      r0,[r1,#0]
        0x000025b0:    00a1        ..      LSLS     r1,r4,#2
        0x000025b2:    4a1a        .J      LDR      r2,[pc,#104] ; [0x261c] = 0x20000000
        0x000025b4:    6812        .h      LDR      r2,[r2,#0]
        0x000025b6:    230a        .#      MOVS     r3,#0xa
        0x000025b8:    435a        ZC      MULS     r2,r3,r2
        0x000025ba:    4610        .F      MOV      r0,r2
        0x000025bc:    f7fdff48    ..H.    BL       __aeabi_uidiv ; 0x450
        0x000025c0:    1d46        F.      ADDS     r6,r0,#5
        0x000025c2:    210a        .!      MOVS     r1,#0xa
        0x000025c4:    4630        0F      MOV      r0,r6
        0x000025c6:    f7fdff43    ..C.    BL       __aeabi_uidiv ; 0x450
        0x000025ca:    1e45        E.      SUBS     r5,r0,#1
        0x000025cc:    2d04        .-      CMP      r5,#4
        0x000025ce:    d200        ..      BCS      0x25d2 ; I2C_Open + 46
        0x000025d0:    2504        .%      MOVS     r5,#4
        0x000025d2:    4813        .H      LDR      r0,[pc,#76] ; [0x2620] = 0x50000200
        0x000025d4:    6880        .h      LDR      r0,[r0,#8]
        0x000025d6:    21ff        .!      MOVS     r1,#0xff
        0x000025d8:    3101        .1      ADDS     r1,#1
        0x000025da:    4388        .C      BICS     r0,r0,r1
        0x000025dc:    1840        @.      ADDS     r0,r0,r1
        0x000025de:    4910        .I      LDR      r1,[pc,#64] ; [0x2620] = 0x50000200
        0x000025e0:    6088        .`      STR      r0,[r1,#8]
        0x000025e2:    2005        .       MOVS     r0,#5
        0x000025e4:    0700        ..      LSLS     r0,r0,#28
        0x000025e6:    68c0        .h      LDR      r0,[r0,#0xc]
        0x000025e8:    21ff        .!      MOVS     r1,#0xff
        0x000025ea:    3101        .1      ADDS     r1,#1
        0x000025ec:    4388        .C      BICS     r0,r0,r1
        0x000025ee:    1840        @.      ADDS     r0,r0,r1
        0x000025f0:    2105        .!      MOVS     r1,#5
        0x000025f2:    0709        ..      LSLS     r1,r1,#28
        0x000025f4:    60c8        .`      STR      r0,[r1,#0xc]
        0x000025f6:    4608        .F      MOV      r0,r1
        0x000025f8:    68c0        .h      LDR      r0,[r0,#0xc]
        0x000025fa:    21ff        .!      MOVS     r1,#0xff
        0x000025fc:    3101        .1      ADDS     r1,#1
        0x000025fe:    4388        .C      BICS     r0,r0,r1
        0x00002600:    2105        .!      MOVS     r1,#5
        0x00002602:    0709        ..      LSLS     r1,r1,#28
        0x00002604:    60c8        .`      STR      r0,[r1,#0xc]
        0x00002606:    4807        .H      LDR      r0,[pc,#28] ; [0x2624] = 0x40020000
        0x00002608:    6800        .h      LDR      r0,[r0,#0]
        0x0000260a:    2140        @!      MOVS     r1,#0x40
        0x0000260c:    4388        .C      BICS     r0,r0,r1
        0x0000260e:    3040        @0      ADDS     r0,r0,#0x40
        0x00002610:    4904        .I      LDR      r1,[pc,#16] ; [0x2624] = 0x40020000
        0x00002612:    6008        .`      STR      r0,[r1,#0]
        0x00002614:    4608        .F      MOV      r0,r1
        0x00002616:    6105        .a      STR      r5,[r0,#0x10]
        0x00002618:    bd70        p.      POP      {r4-r6,pc}
    $d
        0x0000261a:    0000        ..      DCW    0
        0x0000261c:    20000000    ...     DCD    536870912
        0x00002620:    50000200    ...P    DCD    1342177792
        0x00002624:    40020000    ...@    DCD    1073872896
    $t
    i.I2C_Read
    I2C_Read
        0x00002628:    b530        0.      PUSH     {r4,r5,lr}
        0x0000262a:    4605        .F      MOV      r5,r0
        0x0000262c:    2300        .#      MOVS     r3,#0
        0x0000262e:    2201        ."      MOVS     r2,#1
        0x00002630:    4619        .F      MOV      r1,r3
        0x00002632:    4610        .F      MOV      r0,r2
        0x00002634:    f7ffff98    ....    BL       I2C_Ctrl ; 0x2568
        0x00002638:    bf00        ..      NOP      
        0x0000263a:    482e        .H      LDR      r0,[pc,#184] ; [0x26f4] = 0x40020000
        0x0000263c:    6800        .h      LDR      r0,[r0,#0]
        0x0000263e:    0700        ..      LSLS     r0,r0,#28
        0x00002640:    0fc0        ..      LSRS     r0,r0,#31
        0x00002642:    d0fa        ..      BEQ      0x263a ; I2C_Read + 18
        0x00002644:    20d0        .       MOVS     r0,#0xd0
        0x00002646:    492b        +I      LDR      r1,[pc,#172] ; [0x26f4] = 0x40020000
        0x00002648:    6088        .`      STR      r0,[r1,#8]
        0x0000264a:    2300        .#      MOVS     r3,#0
        0x0000264c:    2201        ."      MOVS     r2,#1
        0x0000264e:    4619        .F      MOV      r1,r3
        0x00002650:    4618        .F      MOV      r0,r3
        0x00002652:    f7ffff89    ....    BL       I2C_Ctrl ; 0x2568
        0x00002656:    bf00        ..      NOP      
        0x00002658:    4826        &H      LDR      r0,[pc,#152] ; [0x26f4] = 0x40020000
        0x0000265a:    6800        .h      LDR      r0,[r0,#0]
        0x0000265c:    0700        ..      LSLS     r0,r0,#28
        0x0000265e:    0fc0        ..      LSRS     r0,r0,#31
        0x00002660:    d0fa        ..      BEQ      0x2658 ; I2C_Read + 48
        0x00002662:    4824        $H      LDR      r0,[pc,#144] ; [0x26f4] = 0x40020000
        0x00002664:    6085        .`      STR      r5,[r0,#8]
        0x00002666:    2300        .#      MOVS     r3,#0
        0x00002668:    2201        ."      MOVS     r2,#1
        0x0000266a:    4619        .F      MOV      r1,r3
        0x0000266c:    4618        .F      MOV      r0,r3
        0x0000266e:    f7ffff7b    ..{.    BL       I2C_Ctrl ; 0x2568
        0x00002672:    bf00        ..      NOP      
        0x00002674:    481f        .H      LDR      r0,[pc,#124] ; [0x26f4] = 0x40020000
        0x00002676:    6800        .h      LDR      r0,[r0,#0]
        0x00002678:    0700        ..      LSLS     r0,r0,#28
        0x0000267a:    0fc0        ..      LSRS     r0,r0,#31
        0x0000267c:    d0fa        ..      BEQ      0x2674 ; I2C_Read + 76
        0x0000267e:    2300        .#      MOVS     r3,#0
        0x00002680:    2201        ."      MOVS     r2,#1
        0x00002682:    4619        .F      MOV      r1,r3
        0x00002684:    4610        .F      MOV      r0,r2
        0x00002686:    f7ffff6f    ..o.    BL       I2C_Ctrl ; 0x2568
        0x0000268a:    bf00        ..      NOP      
        0x0000268c:    4819        .H      LDR      r0,[pc,#100] ; [0x26f4] = 0x40020000
        0x0000268e:    6800        .h      LDR      r0,[r0,#0]
        0x00002690:    0700        ..      LSLS     r0,r0,#28
        0x00002692:    0fc0        ..      LSRS     r0,r0,#31
        0x00002694:    d0fa        ..      BEQ      0x268c ; I2C_Read + 100
        0x00002696:    20d1        .       MOVS     r0,#0xd1
        0x00002698:    4916        .I      LDR      r1,[pc,#88] ; [0x26f4] = 0x40020000
        0x0000269a:    6088        .`      STR      r0,[r1,#8]
        0x0000269c:    2300        .#      MOVS     r3,#0
        0x0000269e:    2201        ."      MOVS     r2,#1
        0x000026a0:    4619        .F      MOV      r1,r3
        0x000026a2:    4618        .F      MOV      r0,r3
        0x000026a4:    f7ffff60    ..`.    BL       I2C_Ctrl ; 0x2568
        0x000026a8:    bf00        ..      NOP      
        0x000026aa:    4812        .H      LDR      r0,[pc,#72] ; [0x26f4] = 0x40020000
        0x000026ac:    6800        .h      LDR      r0,[r0,#0]
        0x000026ae:    0700        ..      LSLS     r0,r0,#28
        0x000026b0:    0fc0        ..      LSRS     r0,r0,#31
        0x000026b2:    d0fa        ..      BEQ      0x26aa ; I2C_Read + 130
        0x000026b4:    20ff        .       MOVS     r0,#0xff
        0x000026b6:    490f        .I      LDR      r1,[pc,#60] ; [0x26f4] = 0x40020000
        0x000026b8:    6088        .`      STR      r0,[r1,#8]
        0x000026ba:    2300        .#      MOVS     r3,#0
        0x000026bc:    2201        ."      MOVS     r2,#1
        0x000026be:    4619        .F      MOV      r1,r3
        0x000026c0:    4618        .F      MOV      r0,r3
        0x000026c2:    f7ffff51    ..Q.    BL       I2C_Ctrl ; 0x2568
        0x000026c6:    bf00        ..      NOP      
        0x000026c8:    480a        .H      LDR      r0,[pc,#40] ; [0x26f4] = 0x40020000
        0x000026ca:    6800        .h      LDR      r0,[r0,#0]
        0x000026cc:    0700        ..      LSLS     r0,r0,#28
        0x000026ce:    0fc0        ..      LSRS     r0,r0,#31
        0x000026d0:    d0fa        ..      BEQ      0x26c8 ; I2C_Read + 160
        0x000026d2:    4808        .H      LDR      r0,[pc,#32] ; [0x26f4] = 0x40020000
        0x000026d4:    6880        .h      LDR      r0,[r0,#8]
        0x000026d6:    b2c4        ..      UXTB     r4,r0
        0x000026d8:    2300        .#      MOVS     r3,#0
        0x000026da:    2201        ."      MOVS     r2,#1
        0x000026dc:    4611        .F      MOV      r1,r2
        0x000026de:    4618        .F      MOV      r0,r3
        0x000026e0:    f7ffff42    ..B.    BL       I2C_Ctrl ; 0x2568
        0x000026e4:    bf00        ..      NOP      
        0x000026e6:    4803        .H      LDR      r0,[pc,#12] ; [0x26f4] = 0x40020000
        0x000026e8:    6800        .h      LDR      r0,[r0,#0]
        0x000026ea:    06c0        ..      LSLS     r0,r0,#27
        0x000026ec:    0fc0        ..      LSRS     r0,r0,#31
        0x000026ee:    d1fa        ..      BNE      0x26e6 ; I2C_Read + 190
        0x000026f0:    4620         F      MOV      r0,r4
        0x000026f2:    bd30        0.      POP      {r4,r5,pc}
    $d
        0x000026f4:    40020000    ...@    DCD    1073872896
    $t
    i.I2C_Write
    I2C_Write
        0x000026f8:    b530        0.      PUSH     {r4,r5,lr}
        0x000026fa:    4605        .F      MOV      r5,r0
        0x000026fc:    460c        .F      MOV      r4,r1
        0x000026fe:    2300        .#      MOVS     r3,#0
        0x00002700:    2201        ."      MOVS     r2,#1
        0x00002702:    4619        .F      MOV      r1,r3
        0x00002704:    4610        .F      MOV      r0,r2
        0x00002706:    f7ffff2f    ../.    BL       I2C_Ctrl ; 0x2568
        0x0000270a:    bf00        ..      NOP      
        0x0000270c:    481e        .H      LDR      r0,[pc,#120] ; [0x2788] = 0x40020000
        0x0000270e:    6800        .h      LDR      r0,[r0,#0]
        0x00002710:    0700        ..      LSLS     r0,r0,#28
        0x00002712:    0fc0        ..      LSRS     r0,r0,#31
        0x00002714:    d0fa        ..      BEQ      0x270c ; I2C_Write + 20
        0x00002716:    20d0        .       MOVS     r0,#0xd0
        0x00002718:    491b        .I      LDR      r1,[pc,#108] ; [0x2788] = 0x40020000
        0x0000271a:    6088        .`      STR      r0,[r1,#8]
        0x0000271c:    2300        .#      MOVS     r3,#0
        0x0000271e:    2201        ."      MOVS     r2,#1
        0x00002720:    4619        .F      MOV      r1,r3
        0x00002722:    4618        .F      MOV      r0,r3
        0x00002724:    f7ffff20    .. .    BL       I2C_Ctrl ; 0x2568
        0x00002728:    bf00        ..      NOP      
        0x0000272a:    4817        .H      LDR      r0,[pc,#92] ; [0x2788] = 0x40020000
        0x0000272c:    6800        .h      LDR      r0,[r0,#0]
        0x0000272e:    0700        ..      LSLS     r0,r0,#28
        0x00002730:    0fc0        ..      LSRS     r0,r0,#31
        0x00002732:    d0fa        ..      BEQ      0x272a ; I2C_Write + 50
        0x00002734:    4814        .H      LDR      r0,[pc,#80] ; [0x2788] = 0x40020000
        0x00002736:    6085        .`      STR      r5,[r0,#8]
        0x00002738:    2300        .#      MOVS     r3,#0
        0x0000273a:    2201        ."      MOVS     r2,#1
        0x0000273c:    4619        .F      MOV      r1,r3
        0x0000273e:    4618        .F      MOV      r0,r3
        0x00002740:    f7ffff12    ....    BL       I2C_Ctrl ; 0x2568
        0x00002744:    bf00        ..      NOP      
        0x00002746:    4810        .H      LDR      r0,[pc,#64] ; [0x2788] = 0x40020000
        0x00002748:    6800        .h      LDR      r0,[r0,#0]
        0x0000274a:    0700        ..      LSLS     r0,r0,#28
        0x0000274c:    0fc0        ..      LSRS     r0,r0,#31
        0x0000274e:    d0fa        ..      BEQ      0x2746 ; I2C_Write + 78
        0x00002750:    480d        .H      LDR      r0,[pc,#52] ; [0x2788] = 0x40020000
        0x00002752:    6084        .`      STR      r4,[r0,#8]
        0x00002754:    2300        .#      MOVS     r3,#0
        0x00002756:    2201        ."      MOVS     r2,#1
        0x00002758:    4619        .F      MOV      r1,r3
        0x0000275a:    4618        .F      MOV      r0,r3
        0x0000275c:    f7ffff04    ....    BL       I2C_Ctrl ; 0x2568
        0x00002760:    bf00        ..      NOP      
        0x00002762:    4809        .H      LDR      r0,[pc,#36] ; [0x2788] = 0x40020000
        0x00002764:    6800        .h      LDR      r0,[r0,#0]
        0x00002766:    0700        ..      LSLS     r0,r0,#28
        0x00002768:    0fc0        ..      LSRS     r0,r0,#31
        0x0000276a:    d0fa        ..      BEQ      0x2762 ; I2C_Write + 106
        0x0000276c:    2300        .#      MOVS     r3,#0
        0x0000276e:    2201        ."      MOVS     r2,#1
        0x00002770:    4611        .F      MOV      r1,r2
        0x00002772:    4618        .F      MOV      r0,r3
        0x00002774:    f7fffef8    ....    BL       I2C_Ctrl ; 0x2568
        0x00002778:    bf00        ..      NOP      
        0x0000277a:    4803        .H      LDR      r0,[pc,#12] ; [0x2788] = 0x40020000
        0x0000277c:    6800        .h      LDR      r0,[r0,#0]
        0x0000277e:    06c0        ..      LSLS     r0,r0,#27
        0x00002780:    0fc0        ..      LSRS     r0,r0,#31
        0x00002782:    d1fa        ..      BNE      0x277a ; I2C_Write + 130
        0x00002784:    bd30        0.      POP      {r4,r5,pc}
    $d
        0x00002786:    0000        ..      DCW    0
        0x00002788:    40020000    ...@    DCD    1073872896
    $t
    i.I2C_WriteRawByte
    I2C_WriteRawByte
        0x0000278c:    b530        0.      PUSH     {r4,r5,lr}
        0x0000278e:    4605        .F      MOV      r5,r0
        0x00002790:    460c        .F      MOV      r4,r1
        0x00002792:    2300        .#      MOVS     r3,#0
        0x00002794:    2201        ."      MOVS     r2,#1
        0x00002796:    4619        .F      MOV      r1,r3
        0x00002798:    4610        .F      MOV      r0,r2
        0x0000279a:    f7fffee5    ....    BL       I2C_Ctrl ; 0x2568
        0x0000279e:    bf00        ..      NOP      
        0x000027a0:    4817        .H      LDR      r0,[pc,#92] ; [0x2800] = 0x40020000
        0x000027a2:    6800        .h      LDR      r0,[r0,#0]
        0x000027a4:    0700        ..      LSLS     r0,r0,#28
        0x000027a6:    0fc0        ..      LSRS     r0,r0,#31
        0x000027a8:    d0fa        ..      BEQ      0x27a0 ; I2C_WriteRawByte + 20
        0x000027aa:    0068        h.      LSLS     r0,r5,#1
        0x000027ac:    4914        .I      LDR      r1,[pc,#80] ; [0x2800] = 0x40020000
        0x000027ae:    6088        .`      STR      r0,[r1,#8]
        0x000027b0:    2300        .#      MOVS     r3,#0
        0x000027b2:    2201        ."      MOVS     r2,#1
        0x000027b4:    4619        .F      MOV      r1,r3
        0x000027b6:    4618        .F      MOV      r0,r3
        0x000027b8:    f7fffed6    ....    BL       I2C_Ctrl ; 0x2568
        0x000027bc:    bf00        ..      NOP      
        0x000027be:    4810        .H      LDR      r0,[pc,#64] ; [0x2800] = 0x40020000
        0x000027c0:    6800        .h      LDR      r0,[r0,#0]
        0x000027c2:    0700        ..      LSLS     r0,r0,#28
        0x000027c4:    0fc0        ..      LSRS     r0,r0,#31
        0x000027c6:    d0fa        ..      BEQ      0x27be ; I2C_WriteRawByte + 50
        0x000027c8:    480d        .H      LDR      r0,[pc,#52] ; [0x2800] = 0x40020000
        0x000027ca:    6084        .`      STR      r4,[r0,#8]
        0x000027cc:    2300        .#      MOVS     r3,#0
        0x000027ce:    2201        ."      MOVS     r2,#1
        0x000027d0:    4619        .F      MOV      r1,r3
        0x000027d2:    4618        .F      MOV      r0,r3
        0x000027d4:    f7fffec8    ....    BL       I2C_Ctrl ; 0x2568
        0x000027d8:    bf00        ..      NOP      
        0x000027da:    4809        .H      LDR      r0,[pc,#36] ; [0x2800] = 0x40020000
        0x000027dc:    6800        .h      LDR      r0,[r0,#0]
        0x000027de:    0700        ..      LSLS     r0,r0,#28
        0x000027e0:    0fc0        ..      LSRS     r0,r0,#31
        0x000027e2:    d0fa        ..      BEQ      0x27da ; I2C_WriteRawByte + 78
        0x000027e4:    2300        .#      MOVS     r3,#0
        0x000027e6:    2201        ."      MOVS     r2,#1
        0x000027e8:    4611        .F      MOV      r1,r2
        0x000027ea:    4618        .F      MOV      r0,r3
        0x000027ec:    f7fffebc    ....    BL       I2C_Ctrl ; 0x2568
        0x000027f0:    bf00        ..      NOP      
        0x000027f2:    4803        .H      LDR      r0,[pc,#12] ; [0x2800] = 0x40020000
        0x000027f4:    6800        .h      LDR      r0,[r0,#0]
        0x000027f6:    06c0        ..      LSLS     r0,r0,#27
        0x000027f8:    0fc0        ..      LSRS     r0,r0,#31
        0x000027fa:    d1fa        ..      BNE      0x27f2 ; I2C_WriteRawByte + 102
        0x000027fc:    bd30        0.      POP      {r4,r5,pc}
    $d
        0x000027fe:    0000        ..      DCW    0
        0x00002800:    40020000    ...@    DCD    1073872896
    $t
    i.InitTIMER0
    InitTIMER0
        0x00002804:    4821        !H      LDR      r0,[pc,#132] ; [0x288c] = 0x50000200
        0x00002806:    6940        @i      LDR      r0,[r0,#0x14]
        0x00002808:    2107        .!      MOVS     r1,#7
        0x0000280a:    0209        ..      LSLS     r1,r1,#8
        0x0000280c:    4388        .C      BICS     r0,r0,r1
        0x0000280e:    491f        .I      LDR      r1,[pc,#124] ; [0x288c] = 0x50000200
        0x00002810:    6148        Ha      STR      r0,[r1,#0x14]
        0x00002812:    4608        .F      MOV      r0,r1
        0x00002814:    6880        .h      LDR      r0,[r0,#8]
        0x00002816:    2104        .!      MOVS     r1,#4
        0x00002818:    4388        .C      BICS     r0,r0,r1
        0x0000281a:    1d00        ..      ADDS     r0,r0,#4
        0x0000281c:    491b        .I      LDR      r1,[pc,#108] ; [0x288c] = 0x50000200
        0x0000281e:    6088        .`      STR      r0,[r1,#8]
        0x00002820:    481b        .H      LDR      r0,[pc,#108] ; [0x2890] = 0x40010000
        0x00002822:    6800        .h      LDR      r0,[r0,#0]
        0x00002824:    2103        .!      MOVS     r1,#3
        0x00002826:    06c9        ..      LSLS     r1,r1,#27
        0x00002828:    4388        .C      BICS     r0,r0,r1
        0x0000282a:    2101        .!      MOVS     r1,#1
        0x0000282c:    0709        ..      LSLS     r1,r1,#28
        0x0000282e:    1840        @.      ADDS     r0,r0,r1
        0x00002830:    4917        .I      LDR      r1,[pc,#92] ; [0x2890] = 0x40010000
        0x00002832:    6008        .`      STR      r0,[r1,#0]
        0x00002834:    4608        .F      MOV      r0,r1
        0x00002836:    6800        .h      LDR      r0,[r0,#0]
        0x00002838:    0a00        ..      LSRS     r0,r0,#8
        0x0000283a:    0200        ..      LSLS     r0,r0,#8
        0x0000283c:    300b        .0      ADDS     r0,r0,#0xb
        0x0000283e:    6008        .`      STR      r0,[r1,#0]
        0x00002840:    207d        }       MOVS     r0,#0x7d
        0x00002842:    00c0        ..      LSLS     r0,r0,#3
        0x00002844:    6048        H`      STR      r0,[r1,#4]
        0x00002846:    4608        .F      MOV      r0,r1
        0x00002848:    6800        .h      LDR      r0,[r0,#0]
        0x0000284a:    0349        I.      LSLS     r1,r1,#13
        0x0000284c:    4388        .C      BICS     r0,r0,r1
        0x0000284e:    1840        @.      ADDS     r0,r0,r1
        0x00002850:    490f        .I      LDR      r1,[pc,#60] ; [0x2890] = 0x40010000
        0x00002852:    6008        .`      STR      r0,[r1,#0]
        0x00002854:    4608        .F      MOV      r0,r1
        0x00002856:    6880        .h      LDR      r0,[r0,#8]
        0x00002858:    0840        @.      LSRS     r0,r0,#1
        0x0000285a:    0040        @.      LSLS     r0,r0,#1
        0x0000285c:    1c40        @.      ADDS     r0,r0,#1
        0x0000285e:    6088        .`      STR      r0,[r1,#8]
        0x00002860:    2008        .       MOVS     r0,#8
        0x00002862:    2101        .!      MOVS     r1,#1
        0x00002864:    4081        .@      LSLS     r1,r1,r0
        0x00002866:    4a0b        .J      LDR      r2,[pc,#44] ; [0x2894] = 0xe000e100
        0x00002868:    6011        .`      STR      r1,[r2,#0]
        0x0000286a:    bf00        ..      NOP      
        0x0000286c:    4808        .H      LDR      r0,[pc,#32] ; [0x2890] = 0x40010000
        0x0000286e:    6800        .h      LDR      r0,[r0,#0]
        0x00002870:    2101        .!      MOVS     r1,#1
        0x00002872:    0689        ..      LSLS     r1,r1,#26
        0x00002874:    4388        .C      BICS     r0,r0,r1
        0x00002876:    1840        @.      ADDS     r0,r0,r1
        0x00002878:    4905        .I      LDR      r1,[pc,#20] ; [0x2890] = 0x40010000
        0x0000287a:    6008        .`      STR      r0,[r1,#0]
        0x0000287c:    4608        .F      MOV      r0,r1
        0x0000287e:    6800        .h      LDR      r0,[r0,#0]
        0x00002880:    0389        ..      LSLS     r1,r1,#14
        0x00002882:    4388        .C      BICS     r0,r0,r1
        0x00002884:    1840        @.      ADDS     r0,r0,r1
        0x00002886:    4902        .I      LDR      r1,[pc,#8] ; [0x2890] = 0x40010000
        0x00002888:    6008        .`      STR      r0,[r1,#0]
        0x0000288a:    4770        pG      BX       lr
    $d
        0x0000288c:    50000200    ...P    DCD    1342177792
        0x00002890:    40010000    ...@    DCD    1073807360
        0x00002894:    e000e100    ....    DCD    3758153984
    $t
    i.Init_GPIO
    Init_GPIO
        0x00002898:    b510        ..      PUSH     {r4,lr}
        0x0000289a:    2201        ."      MOVS     r2,#1
        0x0000289c:    2100        .!      MOVS     r1,#0
        0x0000289e:    4608        .F      MOV      r0,r1
        0x000028a0:    f7fffa2a    ..*.    BL       DrvGPIO_Open ; 0x1cf8
        0x000028a4:    2201        ."      MOVS     r2,#1
        0x000028a6:    4611        .F      MOV      r1,r2
        0x000028a8:    2000        .       MOVS     r0,#0
        0x000028aa:    f7fffa25    ..%.    BL       DrvGPIO_Open ; 0x1cf8
        0x000028ae:    2201        ."      MOVS     r2,#1
        0x000028b0:    2102        .!      MOVS     r1,#2
        0x000028b2:    2000        .       MOVS     r0,#0
        0x000028b4:    f7fffa20    .. .    BL       DrvGPIO_Open ; 0x1cf8
        0x000028b8:    2100        .!      MOVS     r1,#0
        0x000028ba:    4608        .F      MOV      r0,r1
        0x000028bc:    f7fefe44    ..D.    BL       DrvGPIO_ClrBit ; 0x1548
        0x000028c0:    2101        .!      MOVS     r1,#1
        0x000028c2:    2000        .       MOVS     r0,#0
        0x000028c4:    f7fefe40    ..@.    BL       DrvGPIO_ClrBit ; 0x1548
        0x000028c8:    2102        .!      MOVS     r1,#2
        0x000028ca:    2000        .       MOVS     r0,#0
        0x000028cc:    f7fefe3c    ..<.    BL       DrvGPIO_ClrBit ; 0x1548
        0x000028d0:    bd10        ..      POP      {r4,pc}
    i.Init_MPU6050
    Init_MPU6050
        0x000028d2:    b510        ..      PUSH     {r4,lr}
        0x000028d4:    2100        .!      MOVS     r1,#0
        0x000028d6:    206b        k       MOVS     r0,#0x6b
        0x000028d8:    f7ffff0e    ....    BL       I2C_Write ; 0x26f8
        0x000028dc:    2107        .!      MOVS     r1,#7
        0x000028de:    2019        .       MOVS     r0,#0x19
        0x000028e0:    f7ffff0a    ....    BL       I2C_Write ; 0x26f8
        0x000028e4:    2106        .!      MOVS     r1,#6
        0x000028e6:    201a        .       MOVS     r0,#0x1a
        0x000028e8:    f7ffff06    ....    BL       I2C_Write ; 0x26f8
        0x000028ec:    2118        .!      MOVS     r1,#0x18
        0x000028ee:    201b        .       MOVS     r0,#0x1b
        0x000028f0:    f7ffff02    ....    BL       I2C_Write ; 0x26f8
        0x000028f4:    2101        .!      MOVS     r1,#1
        0x000028f6:    201c        .       MOVS     r0,#0x1c
        0x000028f8:    f7fffefe    ....    BL       I2C_Write ; 0x26f8
        0x000028fc:    bd10        ..      POP      {r4,pc}
    i.LCD_Cmd
    LCD_Cmd
        0x000028fe:    b510        ..      PUSH     {r4,lr}
        0x00002900:    4604        .F      MOV      r4,r0
        0x00002902:    2100        .!      MOVS     r1,#0
        0x00002904:    4620         F      MOV      r0,r4
        0x00002906:    f000f8a5    ....    BL       LCD_Send ; 0x2a54
        0x0000290a:    bd10        ..      POP      {r4,pc}
    i.LCD_Data
    LCD_Data
        0x0000290c:    b510        ..      PUSH     {r4,lr}
        0x0000290e:    4604        .F      MOV      r4,r0
        0x00002910:    2101        .!      MOVS     r1,#1
        0x00002912:    4620         F      MOV      r0,r4
        0x00002914:    f000f89e    ....    BL       LCD_Send ; 0x2a54
        0x00002918:    bd10        ..      POP      {r4,pc}
        0x0000291a:    0000        ..      MOVS     r0,r0
    i.LCD_I2C_Backlight
    LCD_I2C_Backlight
        0x0000291c:    b510        ..      PUSH     {r4,lr}
        0x0000291e:    4604        .F      MOV      r4,r0
        0x00002920:    2c00        .,      CMP      r4,#0
        0x00002922:    d001        ..      BEQ      0x2928 ; LCD_I2C_Backlight + 12
        0x00002924:    2008        .       MOVS     r0,#8
        0x00002926:    e000        ..      B        0x292a ; LCD_I2C_Backlight + 14
        0x00002928:    2000        .       MOVS     r0,#0
        0x0000292a:    4903        .I      LDR      r1,[pc,#12] ; [0x2938] = 0x2000003d
        0x0000292c:    7008        .p      STRB     r0,[r1,#0]
        0x0000292e:    4608        .F      MOV      r0,r1
        0x00002930:    7800        .x      LDRB     r0,[r0,#0]
        0x00002932:    f000f8bb    ....    BL       LCD_WriteRaw ; 0x2aac
        0x00002936:    bd10        ..      POP      {r4,pc}
    $d
        0x00002938:    2000003d    =..     DCD    536870973
    $t
    i.LCD_I2C_Clear
    LCD_I2C_Clear
        0x0000293c:    b510        ..      PUSH     {r4,lr}
        0x0000293e:    2001        .       MOVS     r0,#1
        0x00002940:    f7ffffdd    ....    BL       LCD_Cmd ; 0x28fe
        0x00002944:    207d        }       MOVS     r0,#0x7d
        0x00002946:    0100        ..      LSLS     r0,r0,#4
        0x00002948:    f7fffa1a    ....    BL       DrvSYS_Delay ; 0x1d80
        0x0000294c:    bd10        ..      POP      {r4,pc}
        0x0000294e:    0000        ..      MOVS     r0,r0
    i.LCD_I2C_Init
    LCD_I2C_Init
        0x00002950:    b510        ..      PUSH     {r4,lr}
        0x00002952:    481b        .H      LDR      r0,[pc,#108] ; [0x29c0] = 0x3a98
        0x00002954:    f7fffa14    ....    BL       DrvSYS_Delay ; 0x1d80
        0x00002958:    2100        .!      MOVS     r1,#0
        0x0000295a:    2030        0       MOVS     r0,#0x30
        0x0000295c:    f000f88c    ....    BL       LCD_Write4 ; 0x2a78
        0x00002960:    4818        .H      LDR      r0,[pc,#96] ; [0x29c4] = 0x1388
        0x00002962:    f7fffa0d    ....    BL       DrvSYS_Delay ; 0x1d80
        0x00002966:    2100        .!      MOVS     r1,#0
        0x00002968:    2030        0       MOVS     r0,#0x30
        0x0000296a:    f000f885    ....    BL       LCD_Write4 ; 0x2a78
        0x0000296e:    20c8        .       MOVS     r0,#0xc8
        0x00002970:    f7fffa06    ....    BL       DrvSYS_Delay ; 0x1d80
        0x00002974:    2100        .!      MOVS     r1,#0
        0x00002976:    2030        0       MOVS     r0,#0x30
        0x00002978:    f000f87e    ..~.    BL       LCD_Write4 ; 0x2a78
        0x0000297c:    20c8        .       MOVS     r0,#0xc8
        0x0000297e:    f7fff9ff    ....    BL       DrvSYS_Delay ; 0x1d80
        0x00002982:    2100        .!      MOVS     r1,#0
        0x00002984:    2020                MOVS     r0,#0x20
        0x00002986:    f000f877    ..w.    BL       LCD_Write4 ; 0x2a78
        0x0000298a:    20c8        .       MOVS     r0,#0xc8
        0x0000298c:    f7fff9f8    ....    BL       DrvSYS_Delay ; 0x1d80
        0x00002990:    2028        (       MOVS     r0,#0x28
        0x00002992:    f7ffffb4    ....    BL       LCD_Cmd ; 0x28fe
        0x00002996:    2008        .       MOVS     r0,#8
        0x00002998:    f7ffffb1    ....    BL       LCD_Cmd ; 0x28fe
        0x0000299c:    2001        .       MOVS     r0,#1
        0x0000299e:    f7ffffae    ....    BL       LCD_Cmd ; 0x28fe
        0x000029a2:    207d        }       MOVS     r0,#0x7d
        0x000029a4:    0100        ..      LSLS     r0,r0,#4
        0x000029a6:    f7fff9eb    ....    BL       DrvSYS_Delay ; 0x1d80
        0x000029aa:    2006        .       MOVS     r0,#6
        0x000029ac:    f7ffffa7    ....    BL       LCD_Cmd ; 0x28fe
        0x000029b0:    200c        .       MOVS     r0,#0xc
        0x000029b2:    f7ffffa4    ....    BL       LCD_Cmd ; 0x28fe
        0x000029b6:    2001        .       MOVS     r0,#1
        0x000029b8:    f7ffffb0    ....    BL       LCD_I2C_Backlight ; 0x291c
        0x000029bc:    bd10        ..      POP      {r4,pc}
    $d
        0x000029be:    0000        ..      DCW    0
        0x000029c0:    00003a98    .:..    DCD    15000
        0x000029c4:    00001388    ....    DCD    5000
    $t
    i.LCD_I2C_Print
    LCD_I2C_Print
        0x000029c8:    b510        ..      PUSH     {r4,lr}
        0x000029ca:    4604        .F      MOV      r4,r0
        0x000029cc:    e003        ..      B        0x29d6 ; LCD_I2C_Print + 14
        0x000029ce:    7820         x      LDRB     r0,[r4,#0]
        0x000029d0:    1c64        d.      ADDS     r4,r4,#1
        0x000029d2:    f7ffff9b    ....    BL       LCD_Data ; 0x290c
        0x000029d6:    7820         x      LDRB     r0,[r4,#0]
        0x000029d8:    2800        .(      CMP      r0,#0
        0x000029da:    d1f8        ..      BNE      0x29ce ; LCD_I2C_Print + 6
        0x000029dc:    bd10        ..      POP      {r4,pc}
    i.LCD_I2C_PrintAt
    LCD_I2C_PrintAt
        0x000029de:    b570        p.      PUSH     {r4-r6,lr}
        0x000029e0:    4605        .F      MOV      r5,r0
        0x000029e2:    460e        .F      MOV      r6,r1
        0x000029e4:    4614        .F      MOV      r4,r2
        0x000029e6:    4631        1F      MOV      r1,r6
        0x000029e8:    4628        (F      MOV      r0,r5
        0x000029ea:    f000f804    ....    BL       LCD_I2C_SetCursor ; 0x29f6
        0x000029ee:    4620         F      MOV      r0,r4
        0x000029f0:    f7ffffea    ....    BL       LCD_I2C_Print ; 0x29c8
        0x000029f4:    bd70        p.      POP      {r4-r6,pc}
    i.LCD_I2C_SetCursor
    LCD_I2C_SetCursor
        0x000029f6:    b570        p.      PUSH     {r4-r6,lr}
        0x000029f8:    4604        .F      MOV      r4,r0
        0x000029fa:    460d        .F      MOV      r5,r1
        0x000029fc:    2c00        .,      CMP      r4,#0
        0x000029fe:    d100        ..      BNE      0x2a02 ; LCD_I2C_SetCursor + 12
        0x00002a00:    e000        ..      B        0x2a04 ; LCD_I2C_SetCursor + 14
        0x00002a02:    2040        @       MOVS     r0,#0x40
        0x00002a04:    0729        ).      LSLS     r1,r5,#28
        0x00002a06:    0f09        ..      LSRS     r1,r1,#28
        0x00002a08:    1846        F.      ADDS     r6,r0,r1
        0x00002a0a:    2180        .!      MOVS     r1,#0x80
        0x00002a0c:    4331        1C      ORRS     r1,r1,r6
        0x00002a0e:    4608        .F      MOV      r0,r1
        0x00002a10:    f7ffff75    ..u.    BL       LCD_Cmd ; 0x28fe
        0x00002a14:    bd70        p.      POP      {r4-r6,pc}
        0x00002a16:    0000        ..      MOVS     r0,r0
    i.LCD_Pulse
    LCD_Pulse
        0x00002a18:    b510        ..      PUSH     {r4,lr}
        0x00002a1a:    4604        .F      MOV      r4,r0
        0x00002a1c:    4621        !F      MOV      r1,r4
        0x00002a1e:    2204        ."      MOVS     r2,#4
        0x00002a20:    4311        .C      ORRS     r1,r1,r2
        0x00002a22:    4a0b        .J      LDR      r2,[pc,#44] ; [0x2a50] = 0x2000003d
        0x00002a24:    7812        .x      LDRB     r2,[r2,#0]
        0x00002a26:    4311        .C      ORRS     r1,r1,r2
        0x00002a28:    4608        .F      MOV      r0,r1
        0x00002a2a:    f000f83f    ..?.    BL       LCD_WriteRaw ; 0x2aac
        0x00002a2e:    20c8        .       MOVS     r0,#0xc8
        0x00002a30:    f7fff9a6    ....    BL       DrvSYS_Delay ; 0x1d80
        0x00002a34:    4621        !F      MOV      r1,r4
        0x00002a36:    2204        ."      MOVS     r2,#4
        0x00002a38:    4391        .C      BICS     r1,r1,r2
        0x00002a3a:    4a05        .J      LDR      r2,[pc,#20] ; [0x2a50] = 0x2000003d
        0x00002a3c:    7812        .x      LDRB     r2,[r2,#0]
        0x00002a3e:    4311        .C      ORRS     r1,r1,r2
        0x00002a40:    4608        .F      MOV      r0,r1
        0x00002a42:    f000f833    ..3.    BL       LCD_WriteRaw ; 0x2aac
        0x00002a46:    20c8        .       MOVS     r0,#0xc8
        0x00002a48:    f7fff99a    ....    BL       DrvSYS_Delay ; 0x1d80
        0x00002a4c:    bd10        ..      POP      {r4,pc}
    $d
        0x00002a4e:    0000        ..      DCW    0
        0x00002a50:    2000003d    =..     DCD    536870973
    $t
    i.LCD_Send
    LCD_Send
        0x00002a54:    b570        p.      PUSH     {r4-r6,lr}
        0x00002a56:    4604        .F      MOV      r4,r0
        0x00002a58:    460d        .F      MOV      r5,r1
        0x00002a5a:    21f0        .!      MOVS     r1,#0xf0
        0x00002a5c:    4021        !@      ANDS     r1,r1,r4
        0x00002a5e:    4608        .F      MOV      r0,r1
        0x00002a60:    4629        )F      MOV      r1,r5
        0x00002a62:    f000f809    ....    BL       LCD_Write4 ; 0x2a78
        0x00002a66:    0121        !.      LSLS     r1,r4,#4
        0x00002a68:    22f0        ."      MOVS     r2,#0xf0
        0x00002a6a:    4011        .@      ANDS     r1,r1,r2
        0x00002a6c:    4608        .F      MOV      r0,r1
        0x00002a6e:    4629        )F      MOV      r1,r5
        0x00002a70:    f000f802    ....    BL       LCD_Write4 ; 0x2a78
        0x00002a74:    bd70        p.      POP      {r4-r6,pc}
        0x00002a76:    0000        ..      MOVS     r0,r0
    i.LCD_Write4
    LCD_Write4
        0x00002a78:    b570        p.      PUSH     {r4-r6,lr}
        0x00002a7a:    4604        .F      MOV      r4,r0
        0x00002a7c:    460d        .F      MOV      r5,r1
        0x00002a7e:    4620         F      MOV      r0,r4
        0x00002a80:    21f0        .!      MOVS     r1,#0xf0
        0x00002a82:    4008        .@      ANDS     r0,r0,r1
        0x00002a84:    2d00        .-      CMP      r5,#0
        0x00002a86:    d001        ..      BEQ      0x2a8c ; LCD_Write4 + 20
        0x00002a88:    2101        .!      MOVS     r1,#1
        0x00002a8a:    e000        ..      B        0x2a8e ; LCD_Write4 + 22
        0x00002a8c:    2100        .!      MOVS     r1,#0
        0x00002a8e:    4308        .C      ORRS     r0,r0,r1
        0x00002a90:    4905        .I      LDR      r1,[pc,#20] ; [0x2aa8] = 0x2000003d
        0x00002a92:    7809        .x      LDRB     r1,[r1,#0]
        0x00002a94:    4308        .C      ORRS     r0,r0,r1
        0x00002a96:    4606        .F      MOV      r6,r0
        0x00002a98:    4630        0F      MOV      r0,r6
        0x00002a9a:    f000f807    ....    BL       LCD_WriteRaw ; 0x2aac
        0x00002a9e:    4630        0F      MOV      r0,r6
        0x00002aa0:    f7ffffba    ....    BL       LCD_Pulse ; 0x2a18
        0x00002aa4:    bd70        p.      POP      {r4-r6,pc}
    $d
        0x00002aa6:    0000        ..      DCW    0
        0x00002aa8:    2000003d    =..     DCD    536870973
    $t
    i.LCD_WriteRaw
    LCD_WriteRaw
        0x00002aac:    b510        ..      PUSH     {r4,lr}
        0x00002aae:    4604        .F      MOV      r4,r0
        0x00002ab0:    4621        !F      MOV      r1,r4
        0x00002ab2:    2027        '       MOVS     r0,#0x27
        0x00002ab4:    f7fffe6a    ..j.    BL       I2C_WriteRawByte ; 0x278c
        0x00002ab8:    bd10        ..      POP      {r4,pc}
        0x00002aba:    0000        ..      MOVS     r0,r0
    i.NVIC_EnableIRQ
    NVIC_EnableIRQ
        0x00002abc:    06c2        ..      LSLS     r2,r0,#27
        0x00002abe:    0ed2        ..      LSRS     r2,r2,#27
        0x00002ac0:    2101        .!      MOVS     r1,#1
        0x00002ac2:    4091        .@      LSLS     r1,r1,r2
        0x00002ac4:    4a01        .J      LDR      r2,[pc,#4] ; [0x2acc] = 0xe000e100
        0x00002ac6:    6011        .`      STR      r1,[r2,#0]
        0x00002ac8:    4770        pG      BX       lr
    $d
        0x00002aca:    0000        ..      DCW    0
        0x00002acc:    e000e100    ....    DCD    3758153984
    $t
    i.PWRWU_IRQHandler
    PWRWU_IRQHandler
        0x00002ad0:    b510        ..      PUSH     {r4,lr}
        0x00002ad2:    4807        .H      LDR      r0,[pc,#28] ; [0x2af0] = 0x50000200
        0x00002ad4:    6800        .h      LDR      r0,[r0,#0]
        0x00002ad6:    2140        @!      MOVS     r1,#0x40
        0x00002ad8:    4388        .C      BICS     r0,r0,r1
        0x00002ada:    3040        @0      ADDS     r0,r0,#0x40
        0x00002adc:    4904        .I      LDR      r1,[pc,#16] ; [0x2af0] = 0x50000200
        0x00002ade:    6008        .`      STR      r0,[r1,#0]
        0x00002ae0:    4804        .H      LDR      r0,[pc,#16] ; [0x2af4] = 0x20000060
        0x00002ae2:    6800        .h      LDR      r0,[r0,#0]
        0x00002ae4:    2800        .(      CMP      r0,#0
        0x00002ae6:    d002        ..      BEQ      0x2aee ; PWRWU_IRQHandler + 30
        0x00002ae8:    4802        .H      LDR      r0,[pc,#8] ; [0x2af4] = 0x20000060
        0x00002aea:    6800        .h      LDR      r0,[r0,#0]
        0x00002aec:    4780        .G      BLX      r0
        0x00002aee:    bd10        ..      POP      {r4,pc}
    $d
        0x00002af0:    50000200    ...P    DCD    1342177792
        0x00002af4:    20000060    `..     DCD    536871008
    $t
    i.SystemCoreClockUpdate
    SystemCoreClockUpdate
        0x00002af8:    b570        p.      PUSH     {r4-r6,lr}
        0x00002afa:    4820         H      LDR      r0,[pc,#128] ; [0x2b7c] = 0x50000200
        0x00002afc:    6900        .i      LDR      r0,[r0,#0x10]
        0x00002afe:    0746        F.      LSLS     r6,r0,#29
        0x00002b00:    0f76        v.      LSRS     r6,r6,#29
        0x00002b02:    2e05        ..      CMP      r6,#5
        0x00002b04:    d900        ..      BLS      0x2b08 ; SystemCoreClockUpdate + 16
        0x00002b06:    2604        .&      MOVS     r6,#4
        0x00002b08:    2e02        ..      CMP      r6,#2
        0x00002b0a:    d003        ..      BEQ      0x2b14 ; SystemCoreClockUpdate + 28
        0x00002b0c:    00b0        ..      LSLS     r0,r6,#2
        0x00002b0e:    491c        .I      LDR      r1,[pc,#112] ; [0x2b80] = 0x20000008
        0x00002b10:    580d        .X      LDR      r5,[r1,r0]
        0x00002b12:    e01e        ..      B        0x2b52 ; SystemCoreClockUpdate + 90
        0x00002b14:    4819        .H      LDR      r0,[pc,#100] ; [0x2b7c] = 0x50000200
        0x00002b16:    6a00        .j      LDR      r0,[r0,#0x20]
        0x00002b18:    0400        ..      LSLS     r0,r0,#16
        0x00002b1a:    0f84        ..      LSRS     r4,r0,#30
        0x00002b1c:    2c01        .,      CMP      r4,#1
        0x00002b1e:    d900        ..      BLS      0x2b22 ; SystemCoreClockUpdate + 42
        0x00002b20:    1e64        d.      SUBS     r4,r4,#1
        0x00002b22:    4a16        .J      LDR      r2,[pc,#88] ; [0x2b7c] = 0x50000200
        0x00002b24:    6a12        .j      LDR      r2,[r2,#0x20]
        0x00002b26:    0312        ..      LSLS     r2,r2,#12
        0x00002b28:    0fd2        ..      LSRS     r2,r2,#31
        0x00002b2a:    d001        ..      BEQ      0x2b30 ; SystemCoreClockUpdate + 56
        0x00002b2c:    4a15        .J      LDR      r2,[pc,#84] ; [0x2b84] = 0x1518000
        0x00002b2e:    e000        ..      B        0x2b32 ; SystemCoreClockUpdate + 58
        0x00002b30:    4a15        .J      LDR      r2,[pc,#84] ; [0x2b88] = 0xb71b00
        0x00002b32:    4b12        .K      LDR      r3,[pc,#72] ; [0x2b7c] = 0x50000200
        0x00002b34:    6a1b        .j      LDR      r3,[r3,#0x20]
        0x00002b36:    05db        ..      LSLS     r3,r3,#23
        0x00002b38:    0ddb        ..      LSRS     r3,r3,#23
        0x00002b3a:    1c9b        ..      ADDS     r3,r3,#2
        0x00002b3c:    4610        .F      MOV      r0,r2
        0x00002b3e:    4358        XC      MULS     r0,r3,r0
        0x00002b40:    4a0e        .J      LDR      r2,[pc,#56] ; [0x2b7c] = 0x50000200
        0x00002b42:    6a12        .j      LDR      r2,[r2,#0x20]
        0x00002b44:    0492        ..      LSLS     r2,r2,#18
        0x00002b46:    0ed2        ..      LSRS     r2,r2,#27
        0x00002b48:    1c91        ..      ADDS     r1,r2,#2
        0x00002b4a:    f7fdfc81    ....    BL       __aeabi_uidiv ; 0x450
        0x00002b4e:    40e0        .@      LSRS     r0,r0,r4
        0x00002b50:    4605        .F      MOV      r5,r0
        0x00002b52:    480a        .H      LDR      r0,[pc,#40] ; [0x2b7c] = 0x50000200
        0x00002b54:    6980        .i      LDR      r0,[r0,#0x18]
        0x00002b56:    0700        ..      LSLS     r0,r0,#28
        0x00002b58:    0f00        ..      LSRS     r0,r0,#28
        0x00002b5a:    1c41        A.      ADDS     r1,r0,#1
        0x00002b5c:    4628        (F      MOV      r0,r5
        0x00002b5e:    f7fdfc77    ..w.    BL       __aeabi_uidiv ; 0x450
        0x00002b62:    490a        .I      LDR      r1,[pc,#40] ; [0x2b8c] = 0x20000000
        0x00002b64:    6008        .`      STR      r0,[r1,#0]
        0x00002b66:    490a        .I      LDR      r1,[pc,#40] ; [0x2b90] = 0xf4240
        0x00002b68:    4808        .H      LDR      r0,[pc,#32] ; [0x2b8c] = 0x20000000
        0x00002b6a:    6800        .h      LDR      r0,[r0,#0]
        0x00002b6c:    104a        J.      ASRS     r2,r1,#1
        0x00002b6e:    1880        ..      ADDS     r0,r0,r2
        0x00002b70:    f7fdfc6e    ..n.    BL       __aeabi_uidiv ; 0x450
        0x00002b74:    4907        .I      LDR      r1,[pc,#28] ; [0x2b94] = 0x20000004
        0x00002b76:    6008        .`      STR      r0,[r1,#0]
        0x00002b78:    bd70        p.      POP      {r4-r6,pc}
    $d
        0x00002b7a:    0000        ..      DCW    0
        0x00002b7c:    50000200    ...P    DCD    1342177792
        0x00002b80:    20000008    ...     DCD    536870920
        0x00002b84:    01518000    ..Q.    DCD    22118400
        0x00002b88:    00b71b00    ....    DCD    12000000
        0x00002b8c:    20000000    ...     DCD    536870912
        0x00002b90:    000f4240    @B..    DCD    1000000
        0x00002b94:    20000004    ...     DCD    536870916
    $t
    i.SystemInit
    SystemInit
        0x00002b98:    4770        pG      BX       lr
        0x00002b9a:    0000        ..      MOVS     r0,r0
    i.TMR0_IRQHandler
    TMR0_IRQHandler
        0x00002b9c:    4806        .H      LDR      r0,[pc,#24] ; [0x2bb8] = 0x20000028
        0x00002b9e:    6800        .h      LDR      r0,[r0,#0]
        0x00002ba0:    1c40        @.      ADDS     r0,r0,#1
        0x00002ba2:    4905        .I      LDR      r1,[pc,#20] ; [0x2bb8] = 0x20000028
        0x00002ba4:    6008        .`      STR      r0,[r1,#0]
        0x00002ba6:    4805        .H      LDR      r0,[pc,#20] ; [0x2bbc] = 0x40010000
        0x00002ba8:    6880        .h      LDR      r0,[r0,#8]
        0x00002baa:    0840        @.      LSRS     r0,r0,#1
        0x00002bac:    0040        @.      LSLS     r0,r0,#1
        0x00002bae:    1c40        @.      ADDS     r0,r0,#1
        0x00002bb0:    4902        .I      LDR      r1,[pc,#8] ; [0x2bbc] = 0x40010000
        0x00002bb2:    6088        .`      STR      r0,[r1,#8]
        0x00002bb4:    4770        pG      BX       lr
    $d
        0x00002bb6:    0000        ..      DCW    0
        0x00002bb8:    20000028    (..     DCD    536870952
        0x00002bbc:    40010000    ...@    DCD    1073807360
    $t
    i.UART02_IRQHandler
    UART02_IRQHandler
        0x00002bc0:    b570        p.      PUSH     {r4-r6,lr}
        0x00002bc2:    480a        .H      LDR      r0,[pc,#40] ; [0x2bec] = 0x40050000
        0x00002bc4:    69c4        .i      LDR      r4,[r0,#0x1c]
        0x00002bc6:    480a        .H      LDR      r0,[pc,#40] ; [0x2bf0] = 0x40154000
        0x00002bc8:    69c5        .i      LDR      r5,[r0,#0x1c]
        0x00002bca:    480a        .H      LDR      r0,[pc,#40] ; [0x2bf4] = 0x20000064
        0x00002bcc:    6800        .h      LDR      r0,[r0,#0]
        0x00002bce:    2800        .(      CMP      r0,#0
        0x00002bd0:    d003        ..      BEQ      0x2bda ; UART02_IRQHandler + 26
        0x00002bd2:    4620         F      MOV      r0,r4
        0x00002bd4:    4907        .I      LDR      r1,[pc,#28] ; [0x2bf4] = 0x20000064
        0x00002bd6:    6809        .h      LDR      r1,[r1,#0]
        0x00002bd8:    4788        .G      BLX      r1
        0x00002bda:    4807        .H      LDR      r0,[pc,#28] ; [0x2bf8] = 0x2000006c
        0x00002bdc:    6800        .h      LDR      r0,[r0,#0]
        0x00002bde:    2800        .(      CMP      r0,#0
        0x00002be0:    d003        ..      BEQ      0x2bea ; UART02_IRQHandler + 42
        0x00002be2:    4628        (F      MOV      r0,r5
        0x00002be4:    4904        .I      LDR      r1,[pc,#16] ; [0x2bf8] = 0x2000006c
        0x00002be6:    6809        .h      LDR      r1,[r1,#0]
        0x00002be8:    4788        .G      BLX      r1
        0x00002bea:    bd70        p.      POP      {r4-r6,pc}
    $d
        0x00002bec:    40050000    ...@    DCD    1074069504
        0x00002bf0:    40154000    .@.@    DCD    1075134464
        0x00002bf4:    20000064    d..     DCD    536871012
        0x00002bf8:    2000006c    l..     DCD    536871020
    $t
    i.UART1_IRQHandler
    UART1_IRQHandler
        0x00002bfc:    b510        ..      PUSH     {r4,lr}
        0x00002bfe:    4805        .H      LDR      r0,[pc,#20] ; [0x2c14] = 0x40150000
        0x00002c00:    69c4        .i      LDR      r4,[r0,#0x1c]
        0x00002c02:    4805        .H      LDR      r0,[pc,#20] ; [0x2c18] = 0x20000068
        0x00002c04:    6800        .h      LDR      r0,[r0,#0]
        0x00002c06:    2800        .(      CMP      r0,#0
        0x00002c08:    d003        ..      BEQ      0x2c12 ; UART1_IRQHandler + 22
        0x00002c0a:    4620         F      MOV      r0,r4
        0x00002c0c:    4902        .I      LDR      r1,[pc,#8] ; [0x2c18] = 0x20000068
        0x00002c0e:    6809        .h      LDR      r1,[r1,#0]
        0x00002c10:    4788        .G      BLX      r1
        0x00002c12:    bd10        ..      POP      {r4,pc}
    $d
        0x00002c14:    40150000    ...@    DCD    1075118080
        0x00002c18:    20000068    h..     DCD    536871016
    $t
    i.UART_INT_HANDLE
    UART_INT_HANDLE
        0x00002c1c:    b510        ..      PUSH     {r4,lr}
        0x00002c1e:    e016        ..      B        0x2c4e ; UART_INT_HANDLE + 50
        0x00002c20:    480e        .H      LDR      r0,[pc,#56] ; [0x2c5c] = 0x40050000
        0x00002c22:    6800        .h      LDR      r0,[r0,#0]
        0x00002c24:    490e        .I      LDR      r1,[pc,#56] ; [0x2c60] = 0x20000070
        0x00002c26:    4a0f        .J      LDR      r2,[pc,#60] ; [0x2c64] = 0x2000001c
        0x00002c28:    8812        ..      LDRH     r2,[r2,#0]
        0x00002c2a:    5488        .T      STRB     r0,[r1,r2]
        0x00002c2c:    480d        .H      LDR      r0,[pc,#52] ; [0x2c64] = 0x2000001c
        0x00002c2e:    8800        ..      LDRH     r0,[r0,#0]
        0x00002c30:    1c40        @.      ADDS     r0,r0,#1
        0x00002c32:    490c        .I      LDR      r1,[pc,#48] ; [0x2c64] = 0x2000001c
        0x00002c34:    8008        ..      STRH     r0,[r1,#0]
        0x00002c36:    4608        .F      MOV      r0,r1
        0x00002c38:    8800        ..      LDRH     r0,[r0,#0]
        0x00002c3a:    280f        .(      CMP      r0,#0xf
        0x00002c3c:    d107        ..      BNE      0x2c4e ; UART_INT_HANDLE + 50
        0x00002c3e:    4a08        .J      LDR      r2,[pc,#32] ; [0x2c60] = 0x20000070
        0x00002c40:    a109        ..      ADR      r1,{pc}+0x28 ; 0x2c68
        0x00002c42:    480a        .H      LDR      r0,[pc,#40] ; [0x2c6c] = 0x20000022
        0x00002c44:    f7fdface    ....    BL       __2sprintf ; 0x1e4
        0x00002c48:    2000        .       MOVS     r0,#0
        0x00002c4a:    4906        .I      LDR      r1,[pc,#24] ; [0x2c64] = 0x2000001c
        0x00002c4c:    8008        ..      STRH     r0,[r1,#0]
        0x00002c4e:    4803        .H      LDR      r0,[pc,#12] ; [0x2c5c] = 0x40050000
        0x00002c50:    69c0        .i      LDR      r0,[r0,#0x1c]
        0x00002c52:    07c0        ..      LSLS     r0,r0,#31
        0x00002c54:    0fc0        ..      LSRS     r0,r0,#31
        0x00002c56:    d1e3        ..      BNE      0x2c20 ; UART_INT_HANDLE + 4
        0x00002c58:    bd10        ..      POP      {r4,pc}
    $d
        0x00002c5a:    0000        ..      DCW    0
        0x00002c5c:    40050000    ...@    DCD    1074069504
        0x00002c60:    20000070    p..     DCD    536871024
        0x00002c64:    2000001c    ...     DCD    536870940
        0x00002c68:    00007325    %s..    DCD    29477
        0x00002c6c:    20000022    "..     DCD    536870946
    $t
    i.__ARM_common_switch8
    __ARM_common_switch8
        0x00002c70:    b430        0.      PUSH     {r4,r5}
        0x00002c72:    4674        tF      MOV      r4,lr
        0x00002c74:    1e64        d.      SUBS     r4,r4,#1
        0x00002c76:    7825        %x      LDRB     r5,[r4,#0]
        0x00002c78:    1c64        d.      ADDS     r4,r4,#1
        0x00002c7a:    42ab        .B      CMP      r3,r5
        0x00002c7c:    d304        ..      BCC      0x2c88 ; __ARM_common_switch8 + 24
        0x00002c7e:    5d63        c]      LDRB     r3,[r4,r5]
        0x00002c80:    005b        [.      LSLS     r3,r3,#1
        0x00002c82:    18e3        ..      ADDS     r3,r4,r3
        0x00002c84:    bc30        0.      POP      {r4,r5}
        0x00002c86:    4718        .G      BX       r3
        0x00002c88:    461d        .F      MOV      r5,r3
        0x00002c8a:    e7f8        ..      B        0x2c7e ; __ARM_common_switch8 + 14
    i._is_digit
    _is_digit
        0x00002c8c:    3830        08      SUBS     r0,r0,#0x30
        0x00002c8e:    280a        .(      CMP      r0,#0xa
        0x00002c90:    d201        ..      BCS      0x2c96 ; _is_digit + 10
        0x00002c92:    2001        .       MOVS     r0,#1
        0x00002c94:    4770        pG      BX       lr
        0x00002c96:    2000        .       MOVS     r0,#0
        0x00002c98:    4770        pG      BX       lr
        0x00002c9a:    0000        ..      MOVS     r0,r0
    i.convert_raw_to_bpm
    convert_raw_to_bpm
        0x00002c9c:    b510        ..      PUSH     {r4,lr}
        0x00002c9e:    4604        .F      MOV      r4,r0
        0x00002ca0:    4816        .H      LDR      r0,[pc,#88] ; [0x2cfc] = 0x20000038
        0x00002ca2:    6800        .h      LDR      r0,[r0,#0]
        0x00002ca4:    2804        .(      CMP      r0,#4
        0x00002ca6:    d114        ..      BNE      0x2cd2 ; convert_raw_to_bpm + 54
        0x00002ca8:    4a15        .J      LDR      r2,[pc,#84] ; [0x2d00] = 0x20000028
        0x00002caa:    6812        .h      LDR      r2,[r2,#0]
        0x00002cac:    4b15        .K      LDR      r3,[pc,#84] ; [0x2d04] = 0x2000002c
        0x00002cae:    681b        .h      LDR      r3,[r3,#0]
        0x00002cb0:    1ad1        ..      SUBS     r1,r2,r3
        0x00002cb2:    4a12        .J      LDR      r2,[pc,#72] ; [0x2cfc] = 0x20000038
        0x00002cb4:    6812        .h      LDR      r2,[r2,#0]
        0x00002cb6:    4b14        .K      LDR      r3,[pc,#80] ; [0x2d08] = 0xea60
        0x00002cb8:    435a        ZC      MULS     r2,r3,r2
        0x00002cba:    4610        .F      MOV      r0,r2
        0x00002cbc:    f7fdfbc8    ....    BL       __aeabi_uidiv ; 0x450
        0x00002cc0:    4912        .I      LDR      r1,[pc,#72] ; [0x2d0c] = 0x20000034
        0x00002cc2:    6008        .`      STR      r0,[r1,#0]
        0x00002cc4:    480e        .H      LDR      r0,[pc,#56] ; [0x2d00] = 0x20000028
        0x00002cc6:    6800        .h      LDR      r0,[r0,#0]
        0x00002cc8:    490e        .I      LDR      r1,[pc,#56] ; [0x2d04] = 0x2000002c
        0x00002cca:    6008        .`      STR      r0,[r1,#0]
        0x00002ccc:    2000        .       MOVS     r0,#0
        0x00002cce:    490b        .I      LDR      r1,[pc,#44] ; [0x2cfc] = 0x20000038
        0x00002cd0:    6008        .`      STR      r0,[r1,#0]
        0x00002cd2:    480f        .H      LDR      r0,[pc,#60] ; [0x2d10] = 0x20000030
        0x00002cd4:    6800        .h      LDR      r0,[r0,#0]
        0x00002cd6:    4284        .B      CMP      r4,r0
        0x00002cd8:    db02        ..      BLT      0x2ce0 ; convert_raw_to_bpm + 68
        0x00002cda:    480d        .H      LDR      r0,[pc,#52] ; [0x2d10] = 0x20000030
        0x00002cdc:    6004        .`      STR      r4,[r0,#0]
        0x00002cde:    e00c        ..      B        0x2cfa ; convert_raw_to_bpm + 94
        0x00002ce0:    480b        .H      LDR      r0,[pc,#44] ; [0x2d10] = 0x20000030
        0x00002ce2:    6800        .h      LDR      r0,[r0,#0]
        0x00002ce4:    1b00        ..      SUBS     r0,r0,r4
        0x00002ce6:    2878        x(      CMP      r0,#0x78
        0x00002ce8:    db07        ..      BLT      0x2cfa ; convert_raw_to_bpm + 94
        0x00002cea:    4804        .H      LDR      r0,[pc,#16] ; [0x2cfc] = 0x20000038
        0x00002cec:    6800        .h      LDR      r0,[r0,#0]
        0x00002cee:    1c40        @.      ADDS     r0,r0,#1
        0x00002cf0:    4902        .I      LDR      r1,[pc,#8] ; [0x2cfc] = 0x20000038
        0x00002cf2:    6008        .`      STR      r0,[r1,#0]
        0x00002cf4:    2000        .       MOVS     r0,#0
        0x00002cf6:    4906        .I      LDR      r1,[pc,#24] ; [0x2d10] = 0x20000030
        0x00002cf8:    6008        .`      STR      r0,[r1,#0]
        0x00002cfa:    bd10        ..      POP      {r4,pc}
    $d
        0x00002cfc:    20000038    8..     DCD    536870968
        0x00002d00:    20000028    (..     DCD    536870952
        0x00002d04:    2000002c    ,..     DCD    536870956
        0x00002d08:    0000ea60    `...    DCD    60000
        0x00002d0c:    20000034    4..     DCD    536870964
        0x00002d10:    20000030    0..     DCD    536870960
    $t
    i.emergency_text
    emergency_text
        0x00002d14:    b51f        ..      PUSH     {r0-r4,lr}
        0x00002d16:    4b11        .K      LDR      r3,[pc,#68] ; [0x2d5c] = 0x375c
        0x00002d18:    cb0f        ..      LDM      r3,{r0-r3}
        0x00002d1a:    466c        lF      MOV      r4,sp
        0x00002d1c:    c40f        ..      STM      r4!,{r0-r3}
        0x00002d1e:    466a        jF      MOV      r2,sp
        0x00002d20:    2100        .!      MOVS     r1,#0
        0x00002d22:    4608        .F      MOV      r0,r1
        0x00002d24:    f7fffe5b    ..[.    BL       LCD_I2C_PrintAt ; 0x29de
        0x00002d28:    a10d        ..      ADR      r1,{pc}+0x38 ; 0x2d60
        0x00002d2a:    4668        hF      MOV      r0,sp
        0x00002d2c:    f7fdfa5a    ..Z.    BL       __2sprintf ; 0x1e4
        0x00002d30:    466a        jF      MOV      r2,sp
        0x00002d32:    2100        .!      MOVS     r1,#0
        0x00002d34:    2001        .       MOVS     r0,#1
        0x00002d36:    f7fffe52    ..R.    BL       LCD_I2C_PrintAt ; 0x29de
        0x00002d3a:    2109        .!      MOVS     r1,#9
        0x00002d3c:    2001        .       MOVS     r0,#1
        0x00002d3e:    f7fefc19    ....    BL       DrvGPIO_GetBit ; 0x1574
        0x00002d42:    b2c4        ..      UXTB     r4,r0
        0x00002d44:    2c00        .,      CMP      r4,#0
        0x00002d46:    d008        ..      BEQ      0x2d5a ; emergency_text + 70
        0x00002d48:    a109        ..      ADR      r1,{pc}+0x28 ; 0x2d70
        0x00002d4a:    4668        hF      MOV      r0,sp
        0x00002d4c:    f7fdfa4a    ..J.    BL       __2sprintf ; 0x1e4
        0x00002d50:    220b        ."      MOVS     r2,#0xb
        0x00002d52:    4669        iF      MOV      r1,sp
        0x00002d54:    2000        .       MOVS     r0,#0
        0x00002d56:    f7fffb57    ..W.    BL       DrvUART_Write ; 0x2408
        0x00002d5a:    bd1f        ..      POP      {r0-r4,pc}
    $d
        0x00002d5c:    0000375c    \7..    DCD    14172
        0x00002d60:    73657270    pres    DCD    1936028272
        0x00002d64:    75622073    s bu    DCD    1969365107
        0x00002d68:    6e6f7474    tton    DCD    1852798068
        0x00002d6c:    00000000    ....    DCD    0
        0x00002d70:    61656c70    plea    DCD    1634036848
        0x00002d74:    68206573    se h    DCD    1746953587
        0x00002d78:    00706c65    elp.    DCD    7367781
    $t
    i.fall_chk
    fall_chk
        0x00002d7c:    b5f0        ..      PUSH     {r4-r7,lr}
        0x00002d7e:    b08d        ..      SUB      sp,sp,#0x34
        0x00002d80:    203c        <       MOVS     r0,#0x3c
        0x00002d82:    f7fffc51    ..Q.    BL       I2C_Read ; 0x2628
        0x00002d86:    4604        .F      MOV      r4,r0
        0x00002d88:    203b        ;       MOVS     r0,#0x3b
        0x00002d8a:    f7fffc4d    ..M.    BL       I2C_Read ; 0x2628
        0x00002d8e:    4605        .F      MOV      r5,r0
        0x00002d90:    0228        (.      LSLS     r0,r5,#8
        0x00002d92:    1900        ..      ADDS     r0,r0,r4
        0x00002d94:    b200        ..      SXTH     r0,r0
        0x00002d96:    900b        ..      STR      r0,[sp,#0x2c]
        0x00002d98:    980b        ..      LDR      r0,[sp,#0x2c]
        0x00002d9a:    f7fef83f    ..?.    BL       __aeabi_i2f ; 0xe1c
        0x00002d9e:    2147        G!      MOVS     r1,#0x47
        0x00002da0:    0609        ..      LSLS     r1,r1,#24
        0x00002da2:    9004        ..      STR      r0,[sp,#0x10]
        0x00002da4:    f7fdff40    ..@.    BL       __aeabi_fdiv ; 0xc28
        0x00002da8:    9005        ..      STR      r0,[sp,#0x14]
        0x00002daa:    f7fdff11    ....    BL       __aeabi_f2d ; 0xbd0
        0x00002dae:    2200        ."      MOVS     r2,#0
        0x00002db0:    2301        .#      MOVS     r3,#1
        0x00002db2:    079b        ..      LSLS     r3,r3,#30
        0x00002db4:    9107        ..      STR      r1,[sp,#0x1c]
        0x00002db6:    9006        ..      STR      r0,[sp,#0x18]
        0x00002db8:    f7fdfdde    ....    BL       __aeabi_dmul ; 0x978
        0x00002dbc:    9109        ..      STR      r1,[sp,#0x24]
        0x00002dbe:    9008        ..      STR      r0,[sp,#0x20]
        0x00002dc0:    f7fdfbf6    ....    BL       __aeabi_d2f ; 0x5b0
        0x00002dc4:    4606        .F      MOV      r6,r0
        0x00002dc6:    203e        >       MOVS     r0,#0x3e
        0x00002dc8:    f7fffc2e    ....    BL       I2C_Read ; 0x2628
        0x00002dcc:    4604        .F      MOV      r4,r0
        0x00002dce:    203d        =       MOVS     r0,#0x3d
        0x00002dd0:    f7fffc2a    ..*.    BL       I2C_Read ; 0x2628
        0x00002dd4:    4605        .F      MOV      r5,r0
        0x00002dd6:    0228        (.      LSLS     r0,r5,#8
        0x00002dd8:    1900        ..      ADDS     r0,r0,r4
        0x00002dda:    b200        ..      SXTH     r0,r0
        0x00002ddc:    900b        ..      STR      r0,[sp,#0x2c]
        0x00002dde:    980b        ..      LDR      r0,[sp,#0x2c]
        0x00002de0:    f7fef81c    ....    BL       __aeabi_i2f ; 0xe1c
        0x00002de4:    2147        G!      MOVS     r1,#0x47
        0x00002de6:    0609        ..      LSLS     r1,r1,#24
        0x00002de8:    9004        ..      STR      r0,[sp,#0x10]
        0x00002dea:    f7fdff1d    ....    BL       __aeabi_fdiv ; 0xc28
        0x00002dee:    9005        ..      STR      r0,[sp,#0x14]
        0x00002df0:    f7fdfeee    ....    BL       __aeabi_f2d ; 0xbd0
        0x00002df4:    2200        ."      MOVS     r2,#0
        0x00002df6:    2301        .#      MOVS     r3,#1
        0x00002df8:    079b        ..      LSLS     r3,r3,#30
        0x00002dfa:    9107        ..      STR      r1,[sp,#0x1c]
        0x00002dfc:    9006        ..      STR      r0,[sp,#0x18]
        0x00002dfe:    f7fdfdbb    ....    BL       __aeabi_dmul ; 0x978
        0x00002e02:    9109        ..      STR      r1,[sp,#0x24]
        0x00002e04:    9008        ..      STR      r0,[sp,#0x20]
        0x00002e06:    f7fdfbd3    ....    BL       __aeabi_d2f ; 0x5b0
        0x00002e0a:    4607        .F      MOV      r7,r0
        0x00002e0c:    2040        @       MOVS     r0,#0x40
        0x00002e0e:    f7fffc0b    ....    BL       I2C_Read ; 0x2628
        0x00002e12:    4604        .F      MOV      r4,r0
        0x00002e14:    203f        ?       MOVS     r0,#0x3f
        0x00002e16:    f7fffc07    ....    BL       I2C_Read ; 0x2628
        0x00002e1a:    4605        .F      MOV      r5,r0
        0x00002e1c:    0228        (.      LSLS     r0,r5,#8
        0x00002e1e:    1900        ..      ADDS     r0,r0,r4
        0x00002e20:    b200        ..      SXTH     r0,r0
        0x00002e22:    900b        ..      STR      r0,[sp,#0x2c]
        0x00002e24:    980b        ..      LDR      r0,[sp,#0x2c]
        0x00002e26:    f7fdfff9    ....    BL       __aeabi_i2f ; 0xe1c
        0x00002e2a:    2147        G!      MOVS     r1,#0x47
        0x00002e2c:    0609        ..      LSLS     r1,r1,#24
        0x00002e2e:    9004        ..      STR      r0,[sp,#0x10]
        0x00002e30:    f7fdfefa    ....    BL       __aeabi_fdiv ; 0xc28
        0x00002e34:    9005        ..      STR      r0,[sp,#0x14]
        0x00002e36:    f7fdfecb    ....    BL       __aeabi_f2d ; 0xbd0
        0x00002e3a:    2200        ."      MOVS     r2,#0
        0x00002e3c:    2301        .#      MOVS     r3,#1
        0x00002e3e:    079b        ..      LSLS     r3,r3,#30
        0x00002e40:    9107        ..      STR      r1,[sp,#0x1c]
        0x00002e42:    9006        ..      STR      r0,[sp,#0x18]
        0x00002e44:    f7fdfd98    ....    BL       __aeabi_dmul ; 0x978
        0x00002e48:    9109        ..      STR      r1,[sp,#0x24]
        0x00002e4a:    9008        ..      STR      r0,[sp,#0x20]
        0x00002e4c:    f7fdfbb0    ....    BL       __aeabi_d2f ; 0x5b0
        0x00002e50:    900c        ..      STR      r0,[sp,#0x30]
        0x00002e52:    990c        ..      LDR      r1,[sp,#0x30]
        0x00002e54:    4608        .F      MOV      r0,r1
        0x00002e56:    f000fb95    ....    BL       __aeabi_fmul ; 0x3584
        0x00002e5a:    4639        9F      MOV      r1,r7
        0x00002e5c:    9004        ..      STR      r0,[sp,#0x10]
        0x00002e5e:    4638        8F      MOV      r0,r7
        0x00002e60:    f000fb90    ....    BL       __aeabi_fmul ; 0x3584
        0x00002e64:    4631        1F      MOV      r1,r6
        0x00002e66:    9002        ..      STR      r0,[sp,#8]
        0x00002e68:    4630        0F      MOV      r0,r6
        0x00002e6a:    f000fb8b    ....    BL       __aeabi_fmul ; 0x3584
        0x00002e6e:    9001        ..      STR      r0,[sp,#4]
        0x00002e70:    9902        ..      LDR      r1,[sp,#8]
        0x00002e72:    f000fb41    ..A.    BL       __aeabi_fadd ; 0x34f8
        0x00002e76:    9003        ..      STR      r0,[sp,#0xc]
        0x00002e78:    9904        ..      LDR      r1,[sp,#0x10]
        0x00002e7a:    f000fb3d    ..=.    BL       __aeabi_fadd ; 0x34f8
        0x00002e7e:    9005        ..      STR      r0,[sp,#0x14]
        0x00002e80:    f7fdfea6    ....    BL       __aeabi_f2d ; 0xbd0
        0x00002e84:    9107        ..      STR      r1,[sp,#0x1c]
        0x00002e86:    9006        ..      STR      r0,[sp,#0x18]
        0x00002e88:    f000fa8e    ....    BL       sqrt ; 0x33a8
        0x00002e8c:    9109        ..      STR      r1,[sp,#0x24]
        0x00002e8e:    9008        ..      STR      r0,[sp,#0x20]
        0x00002e90:    f7fdfb8e    ....    BL       __aeabi_d2f ; 0x5b0
        0x00002e94:    900a        ..      STR      r0,[sp,#0x28]
        0x00002e96:    481d        .H      LDR      r0,[pc,#116] ; [0x2f0c] = 0x2000003c
        0x00002e98:    7800        .x      LDRB     r0,[r0,#0]
        0x00002e9a:    2800        .(      CMP      r0,#0
        0x00002e9c:    d10d        ..      BNE      0x2eba ; fall_chk + 318
        0x00002e9e:    980a        ..      LDR      r0,[sp,#0x28]
        0x00002ea0:    f7fdfe96    ....    BL       __aeabi_f2d ; 0xbd0
        0x00002ea4:    4a1a        .J      LDR      r2,[pc,#104] ; [0x2f10] = 0x33333333
        0x00002ea6:    4b1b        .K      LDR      r3,[pc,#108] ; [0x2f14] = 0x3fd33333
        0x00002ea8:    9109        ..      STR      r1,[sp,#0x24]
        0x00002eaa:    9008        ..      STR      r0,[sp,#0x20]
        0x00002eac:    f000fabe    ....    BL       __aeabi_cdcmple ; 0x342c
        0x00002eb0:    d22a        *.      BCS      0x2f08 ; fall_chk + 396
        0x00002eb2:    2001        .       MOVS     r0,#1
        0x00002eb4:    4915        .I      LDR      r1,[pc,#84] ; [0x2f0c] = 0x2000003c
        0x00002eb6:    7008        .p      STRB     r0,[r1,#0]
        0x00002eb8:    e026        &.      B        0x2f08 ; fall_chk + 396
        0x00002eba:    4814        .H      LDR      r0,[pc,#80] ; [0x2f0c] = 0x2000003c
        0x00002ebc:    7800        .x      LDRB     r0,[r0,#0]
        0x00002ebe:    2801        .(      CMP      r0,#1
        0x00002ec0:    d122        ".      BNE      0x2f08 ; fall_chk + 396
        0x00002ec2:    217f        .!      MOVS     r1,#0x7f
        0x00002ec4:    05c9        ..      LSLS     r1,r1,#23
        0x00002ec6:    980a        ..      LDR      r0,[sp,#0x28]
        0x00002ec8:    f000fbb4    ....    BL       __aeabi_cfrcmple ; 0x3634
        0x00002ecc:    d205        ..      BCS      0x2eda ; fall_chk + 350
        0x00002ece:    2000        .       MOVS     r0,#0
        0x00002ed0:    490e        .I      LDR      r1,[pc,#56] ; [0x2f0c] = 0x2000003c
        0x00002ed2:    7008        .p      STRB     r0,[r1,#0]
        0x00002ed4:    2001        .       MOVS     r0,#1
        0x00002ed6:    b00d        ..      ADD      sp,sp,#0x34
        0x00002ed8:    bdf0        ..      POP      {r4-r7,pc}
        0x00002eda:    980a        ..      LDR      r0,[sp,#0x28]
        0x00002edc:    f7fdfe78    ..x.    BL       __aeabi_f2d ; 0xbd0
        0x00002ee0:    4a0d        .J      LDR      r2,[pc,#52] ; [0x2f18] = 0x9999999a
        0x00002ee2:    4b0e        .K      LDR      r3,[pc,#56] ; [0x2f1c] = 0x3fe99999
        0x00002ee4:    9109        ..      STR      r1,[sp,#0x24]
        0x00002ee6:    9008        ..      STR      r0,[sp,#0x20]
        0x00002ee8:    f000fad2    ....    BL       __aeabi_cdrcmple ; 0x3490
        0x00002eec:    d20c        ..      BCS      0x2f08 ; fall_chk + 396
        0x00002eee:    980a        ..      LDR      r0,[sp,#0x28]
        0x00002ef0:    f7fdfe6e    ..n.    BL       __aeabi_f2d ; 0xbd0
        0x00002ef4:    4a06        .J      LDR      r2,[pc,#24] ; [0x2f10] = 0x33333333
        0x00002ef6:    4b0a        .K      LDR      r3,[pc,#40] ; [0x2f20] = 0x3ff33333
        0x00002ef8:    9109        ..      STR      r1,[sp,#0x24]
        0x00002efa:    9008        ..      STR      r0,[sp,#0x20]
        0x00002efc:    f000fa96    ....    BL       __aeabi_cdcmple ; 0x342c
        0x00002f00:    d202        ..      BCS      0x2f08 ; fall_chk + 396
        0x00002f02:    2000        .       MOVS     r0,#0
        0x00002f04:    4901        .I      LDR      r1,[pc,#4] ; [0x2f0c] = 0x2000003c
        0x00002f06:    7008        .p      STRB     r0,[r1,#0]
        0x00002f08:    2000        .       MOVS     r0,#0
        0x00002f0a:    e7e4        ..      B        0x2ed6 ; fall_chk + 346
    $d
        0x00002f0c:    2000003c    <..     DCD    536870972
        0x00002f10:    33333333    3333    DCD    858993459
        0x00002f14:    3fd33333    33.?    DCD    1070805811
        0x00002f18:    9999999a    ....    DCD    2576980378
        0x00002f1c:    3fe99999    ...?    DCD    1072273817
        0x00002f20:    3ff33333    33.?    DCD    1072902963
    $t
    i.heart_chk
    heart_chk
        0x00002f24:    b510        ..      PUSH     {r4,lr}
        0x00002f26:    b086        ..      SUB      sp,sp,#0x18
        0x00002f28:    4604        .F      MOV      r4,r0
        0x00002f2a:    a10a        ..      ADR      r1,{pc}+0x2a ; 0x2f54
        0x00002f2c:    a802        ..      ADD      r0,sp,#8
        0x00002f2e:    f7fdf959    ..Y.    BL       __2sprintf ; 0x1e4
        0x00002f32:    aa02        ..      ADD      r2,sp,#8
        0x00002f34:    2100        .!      MOVS     r1,#0
        0x00002f36:    4608        .F      MOV      r0,r1
        0x00002f38:    f7fffd51    ..Q.    BL       LCD_I2C_PrintAt ; 0x29de
        0x00002f3c:    4622        "F      MOV      r2,r4
        0x00002f3e:    a108        ..      ADR      r1,{pc}+0x22 ; 0x2f60
        0x00002f40:    a801        ..      ADD      r0,sp,#4
        0x00002f42:    f7fdf94f    ..O.    BL       __2sprintf ; 0x1e4
        0x00002f46:    aa01        ..      ADD      r2,sp,#4
        0x00002f48:    2100        .!      MOVS     r1,#0
        0x00002f4a:    2001        .       MOVS     r0,#1
        0x00002f4c:    f7fffd47    ..G.    BL       LCD_I2C_PrintAt ; 0x29de
        0x00002f50:    b006        ..      ADD      sp,sp,#0x18
        0x00002f52:    bd10        ..      POP      {r4,pc}
    $d
        0x00002f54:    72616548    Hear    DCD    1918985544
        0x00002f58:    50422074    t BP    DCD    1346510964
        0x00002f5c:    0000004d    M...    DCD    77
        0x00002f60:    00006425    %d..    DCD    25637
    $t
    i.home
    home
        0x00002f64:    b570        p.      PUSH     {r4-r6,lr}
        0x00002f66:    b08a        ..      SUB      sp,sp,#0x28
        0x00002f68:    4604        .F      MOV      r4,r0
        0x00002f6a:    460d        .F      MOV      r5,r1
        0x00002f6c:    4616        .F      MOV      r6,r2
        0x00002f6e:    a30c        ..      ADR      r3,{pc}+0x32 ; 0x2fa0
        0x00002f70:    cb0f        ..      LDM      r3,{r0-r3}
        0x00002f72:    9305        ..      STR      r3,[sp,#0x14]
        0x00002f74:    ab02        ..      ADD      r3,sp,#8
        0x00002f76:    c307        ..      STM      r3!,{r0-r2}
        0x00002f78:    462b        +F      MOV      r3,r5
        0x00002f7a:    4622        "F      MOV      r2,r4
        0x00002f7c:    a10c        ..      ADR      r1,{pc}+0x34 ; 0x2fb0
        0x00002f7e:    a806        ..      ADD      r0,sp,#0x18
        0x00002f80:    9600        ..      STR      r6,[sp,#0]
        0x00002f82:    f7fdf92f    ../.    BL       __2sprintf ; 0x1e4
        0x00002f86:    aa06        ..      ADD      r2,sp,#0x18
        0x00002f88:    2100        .!      MOVS     r1,#0
        0x00002f8a:    4608        .F      MOV      r0,r1
        0x00002f8c:    f7fffd27    ..'.    BL       LCD_I2C_PrintAt ; 0x29de
        0x00002f90:    aa02        ..      ADD      r2,sp,#8
        0x00002f92:    2100        .!      MOVS     r1,#0
        0x00002f94:    2001        .       MOVS     r0,#1
        0x00002f96:    f7fffd22    ..".    BL       LCD_I2C_PrintAt ; 0x29de
        0x00002f9a:    b00a        ..      ADD      sp,sp,#0x28
        0x00002f9c:    bd70        p.      POP      {r4-r6,pc}
    $d
        0x00002f9e:    0000        ..      DCW    0
        0x00002fa0:    65766f4d    Move    DCD    1702260557
        0x00002fa4:    66656c20     lef    DCD    1717922848
        0x00002fa8:    69722f74    t/ri    DCD    1769090932
        0x00002fac:    00746867    ght.    DCD    7628903
        0x00002fb0:    656d6954    Time    DCD    1701669204
        0x00002fb4:    3025203a    : %0    DCD    807739450
        0x00002fb8:    253a6432    2d:%    DCD    624583730
        0x00002fbc:    3a643230    02d:    DCD    979644976
        0x00002fc0:    64323025    %02d    DCD    1681010725
        0x00002fc4:    00000000    ....    DCD    0
    $t
    i.main
    main
        0x00002fc8:    b094        ..      SUB      sp,sp,#0x50
        0x00002fca:    2400        .$      MOVS     r4,#0
        0x00002fcc:    2000        .       MOVS     r0,#0
        0x00002fce:    900c        ..      STR      r0,[sp,#0x30]
        0x00002fd0:    2500        .%      MOVS     r5,#0
        0x00002fd2:    2600        .&      MOVS     r6,#0
        0x00002fd4:    9007        ..      STR      r0,[sp,#0x1c]
        0x00002fd6:    9006        ..      STR      r0,[sp,#0x18]
        0x00002fd8:    9005        ..      STR      r0,[sp,#0x14]
        0x00002fda:    9004        ..      STR      r0,[sp,#0x10]
        0x00002fdc:    2059        Y       MOVS     r0,#0x59
        0x00002fde:    49cd        .I      LDR      r1,[pc,#820] ; [0x3314] = 0x50000100
        0x00002fe0:    6008        .`      STR      r0,[r1,#0]
        0x00002fe2:    2016        .       MOVS     r0,#0x16
        0x00002fe4:    6008        .`      STR      r0,[r1,#0]
        0x00002fe6:    2088        .       MOVS     r0,#0x88
        0x00002fe8:    6008        .`      STR      r0,[r1,#0]
        0x00002fea:    48cb        .H      LDR      r0,[pc,#812] ; [0x3318] = 0x2dc6c00
        0x00002fec:    f7feffba    ....    BL       DrvSYS_Open ; 0x1f64
        0x00002ff0:    2000        .       MOVS     r0,#0
        0x00002ff2:    49c8        .I      LDR      r1,[pc,#800] ; [0x3314] = 0x50000100
        0x00002ff4:    6008        .`      STR      r0,[r1,#0]
        0x00002ff6:    2029        )       MOVS     r0,#0x29
        0x00002ff8:    f7fefad2    ....    BL       DrvGPIO_InitFunction ; 0x15a0
        0x00002ffc:    f7fffc02    ....    BL       InitTIMER0 ; 0x2804
        0x00003000:    2029        )       MOVS     r0,#0x29
        0x00003002:    f7fefacd    ....    BL       DrvGPIO_InitFunction ; 0x15a0
        0x00003006:    204b        K       MOVS     r0,#0x4b
        0x00003008:    01c0        ..      LSLS     r0,r0,#7
        0x0000300a:    9008        ..      STR      r0,[sp,#0x20]
        0x0000300c:    2103        .!      MOVS     r1,#3
        0x0000300e:    a808        ..      ADD      r0,sp,#0x20
        0x00003010:    7101        .q      STRB     r1,[r0,#4]
        0x00003012:    2100        .!      MOVS     r1,#0
        0x00003014:    7141        Aq      STRB     r1,[r0,#5]
        0x00003016:    7181        .q      STRB     r1,[r0,#6]
        0x00003018:    71c1        .q      STRB     r1,[r0,#7]
        0x0000301a:    a908        ..      ADD      r1,sp,#0x20
        0x0000301c:    2000        .       MOVS     r0,#0
        0x0000301e:    f7fff8c1    ....    BL       DrvUART_Open ; 0x21a4
        0x00003022:    4abe        .J      LDR      r2,[pc,#760] ; [0x331c] = 0x2c1d
        0x00003024:    2101        .!      MOVS     r1,#1
        0x00003026:    2000        .       MOVS     r0,#0
        0x00003028:    f7fff83c    ..<.    BL       DrvUART_EnableInt ; 0x20a4
        0x0000302c:    2001        .       MOVS     r0,#1
        0x0000302e:    2302        .#      MOVS     r3,#2
        0x00003030:    22f0        ."      MOVS     r2,#0xf0
        0x00003032:    4601        .F      MOV      r1,r0
        0x00003034:    9000        ..      STR      r0,[sp,#0]
        0x00003036:    2000        .       MOVS     r0,#0
        0x00003038:    f7fefa04    ....    BL       DrvADC_Open ; 0x1444
        0x0000303c:    f7fffc2c    ..,.    BL       Init_GPIO ; 0x2898
        0x00003040:    2200        ."      MOVS     r2,#0
        0x00003042:    2109        .!      MOVS     r1,#9
        0x00003044:    2001        .       MOVS     r0,#1
        0x00003046:    f7fefe57    ..W.    BL       DrvGPIO_Open ; 0x1cf8
        0x0000304a:    2002        .       MOVS     r0,#2
        0x0000304c:    f7fefaa8    ....    BL       DrvGPIO_InitFunction ; 0x15a0
        0x00003050:    48b3        .H      LDR      r0,[pc,#716] ; [0x3320] = 0x186a0
        0x00003052:    f7fffaa7    ....    BL       I2C_Open ; 0x25a4
        0x00003056:    f7fffc7b    ..{.    BL       LCD_I2C_Init ; 0x2950
        0x0000305a:    f7fffc3a    ..:.    BL       Init_MPU6050 ; 0x28d2
        0x0000305e:    e158        X.      B        0x3312 ; main + 842
        0x00003060:    f7fefa60    ..`.    BL       DrvADC_StartConvert ; 0x1524
        0x00003064:    bf00        ..      NOP      
        0x00003066:    f7fef9e3    ....    BL       DrvADC_IsConversionDone ; 0x1430
        0x0000306a:    2800        .(      CMP      r0,#0
        0x0000306c:    d0fb        ..      BEQ      0x3066 ; main + 158
        0x0000306e:    48ad        .H      LDR      r0,[pc,#692] ; [0x3324] = 0x400e0000
        0x00003070:    6940        @i      LDR      r0,[r0,#0x14]
        0x00003072:    0507        ..      LSLS     r7,r0,#20
        0x00003074:    0d3f        ?.      LSRS     r7,r7,#20
        0x00003076:    48ab        .H      LDR      r0,[pc,#684] ; [0x3324] = 0x400e0000
        0x00003078:    6900        .i      LDR      r0,[r0,#0x10]
        0x0000307a:    0500        ..      LSLS     r0,r0,#20
        0x0000307c:    0d00        ..      LSRS     r0,r0,#20
        0x0000307e:    900b        ..      STR      r0,[sp,#0x2c]
        0x00003080:    48a8        .H      LDR      r0,[pc,#672] ; [0x3324] = 0x400e0000
        0x00003082:    6980        .i      LDR      r0,[r0,#0x18]
        0x00003084:    0500        ..      LSLS     r0,r0,#20
        0x00003086:    0d00        ..      LSRS     r0,r0,#20
        0x00003088:    900d        ..      STR      r0,[sp,#0x34]
        0x0000308a:    49a6        .I      LDR      r1,[pc,#664] ; [0x3324] = 0x400e0000
        0x0000308c:    69c9        .i      LDR      r1,[r1,#0x1c]
        0x0000308e:    0508        ..      LSLS     r0,r1,#20
        0x00003090:    0d00        ..      LSRS     r0,r0,#20
        0x00003092:    f7fdfec3    ....    BL       __aeabi_i2f ; 0xe1c
        0x00003096:    900e        ..      STR      r0,[sp,#0x38]
        0x00003098:    980e        ..      LDR      r0,[sp,#0x38]
        0x0000309a:    f7fdfd99    ....    BL       __aeabi_f2d ; 0xbd0
        0x0000309e:    4aa2        .J      LDR      r2,[pc,#648] ; [0x3328] = 0xcccccccd
        0x000030a0:    4ba2        .K      LDR      r3,[pc,#648] ; [0x332c] = 0x4012cccc
        0x000030a2:    9101        ..      STR      r1,[sp,#4]
        0x000030a4:    9000        ..      STR      r0,[sp,#0]
        0x000030a6:    f7fdfc67    ..g.    BL       __aeabi_dmul ; 0x978
        0x000030aa:    9103        ..      STR      r1,[sp,#0xc]
        0x000030ac:    9002        ..      STR      r0,[sp,#8]
        0x000030ae:    f7fdfa7f    ....    BL       __aeabi_d2f ; 0x5b0
        0x000030b2:    900e        ..      STR      r0,[sp,#0x38]
        0x000030b4:    218b        .!      MOVS     r1,#0x8b
        0x000030b6:    05c9        ..      LSLS     r1,r1,#23
        0x000030b8:    980e        ..      LDR      r0,[sp,#0x38]
        0x000030ba:    f7fdfdb5    ....    BL       __aeabi_fdiv ; 0xc28
        0x000030be:    900e        ..      STR      r0,[sp,#0x38]
        0x000030c0:    980e        ..      LDR      r0,[sp,#0x38]
        0x000030c2:    f7fdfd85    ....    BL       __aeabi_f2d ; 0xbd0
        0x000030c6:    4a9a        .J      LDR      r2,[pc,#616] ; [0x3330] = 0x9999999a
        0x000030c8:    4b9a        .K      LDR      r3,[pc,#616] ; [0x3334] = 0x3fd99999
        0x000030ca:    9101        ..      STR      r1,[sp,#4]
        0x000030cc:    9000        ..      STR      r0,[sp,#0]
        0x000030ce:    f7fdfc31    ..1.    BL       __aeabi_dsub ; 0x934
        0x000030d2:    9103        ..      STR      r1,[sp,#0xc]
        0x000030d4:    9002        ..      STR      r0,[sp,#8]
        0x000030d6:    f7fdfa6b    ..k.    BL       __aeabi_d2f ; 0x5b0
        0x000030da:    900e        ..      STR      r0,[sp,#0x38]
        0x000030dc:    4996        .I      LDR      r1,[pc,#600] ; [0x3338] = 0x424c0000
        0x000030de:    980e        ..      LDR      r0,[sp,#0x38]
        0x000030e0:    f000fa50    ..P.    BL       __aeabi_fmul ; 0x3584
        0x000030e4:    900e        ..      STR      r0,[sp,#0x38]
        0x000030e6:    2109        .!      MOVS     r1,#9
        0x000030e8:    2001        .       MOVS     r0,#1
        0x000030ea:    f7fefa43    ..C.    BL       DrvGPIO_GetBit ; 0x1574
        0x000030ee:    b2c0        ..      UXTB     r0,r0
        0x000030f0:    9004        ..      STR      r0,[sp,#0x10]
        0x000030f2:    9805        ..      LDR      r0,[sp,#0x14]
        0x000030f4:    1c40        @.      ADDS     r0,r0,#1
        0x000030f6:    9005        ..      STR      r0,[sp,#0x14]
        0x000030f8:    4990        .I      LDR      r1,[pc,#576] ; [0x333c] = 0x2710
        0x000030fa:    9805        ..      LDR      r0,[sp,#0x14]
        0x000030fc:    4288        .B      CMP      r0,r1
        0x000030fe:    d301        ..      BCC      0x3104 ; main + 316
        0x00003100:    2000        .       MOVS     r0,#0
        0x00003102:    9005        ..      STR      r0,[sp,#0x14]
        0x00003104:    2c01        .,      CMP      r4,#1
        0x00003106:    db18        ..      BLT      0x313a ; main + 370
        0x00003108:    210a        .!      MOVS     r1,#0xa
        0x0000310a:    9805        ..      LDR      r0,[sp,#0x14]
        0x0000310c:    f7fdf9a0    ....    BL       __aeabi_uidiv ; 0x450
        0x00003110:    2900        .)      CMP      r1,#0
        0x00003112:    d112        ..      BNE      0x313a ; main + 370
        0x00003114:    9807        ..      LDR      r0,[sp,#0x1c]
        0x00003116:    1c40        @.      ADDS     r0,r0,#1
        0x00003118:    b2c0        ..      UXTB     r0,r0
        0x0000311a:    9007        ..      STR      r0,[sp,#0x1c]
        0x0000311c:    9807        ..      LDR      r0,[sp,#0x1c]
        0x0000311e:    283c        <(      CMP      r0,#0x3c
        0x00003120:    db0b        ..      BLT      0x313a ; main + 370
        0x00003122:    2000        .       MOVS     r0,#0
        0x00003124:    9007        ..      STR      r0,[sp,#0x1c]
        0x00003126:    1c70        p.      ADDS     r0,r6,#1
        0x00003128:    b2c6        ..      UXTB     r6,r0
        0x0000312a:    2e3c        <.      CMP      r6,#0x3c
        0x0000312c:    db05        ..      BLT      0x313a ; main + 370
        0x0000312e:    2600        .&      MOVS     r6,#0
        0x00003130:    1c68        h.      ADDS     r0,r5,#1
        0x00003132:    b2c5        ..      UXTB     r5,r0
        0x00003134:    2d18        .-      CMP      r5,#0x18
        0x00003136:    db00        ..      BLT      0x313a ; main + 370
        0x00003138:    2500        .%      MOVS     r5,#0
        0x0000313a:    980d        ..      LDR      r0,[sp,#0x34]
        0x0000313c:    f7fffdae    ....    BL       convert_raw_to_bpm ; 0x2c9c
        0x00003140:    f7fffe1c    ....    BL       fall_chk ; 0x2d7c
        0x00003144:    2801        .(      CMP      r0,#1
        0x00003146:    d101        ..      BNE      0x314c ; main + 388
        0x00003148:    2405        .$      MOVS     r4,#5
        0x0000314a:    e03c        <.      B        0x31c6 ; main + 510
        0x0000314c:    2c00        .,      CMP      r4,#0
        0x0000314e:    dd3a        :.      BLE      0x31c6 ; main + 510
        0x00003150:    497b        {I      LDR      r1,[pc,#492] ; [0x3340] = 0xdac
        0x00003152:    980b        ..      LDR      r0,[sp,#0x2c]
        0x00003154:    4288        .B      CMP      r0,r1
        0x00003156:    dd10        ..      BLE      0x317a ; main + 434
        0x00003158:    980c        ..      LDR      r0,[sp,#0x30]
        0x0000315a:    2800        .(      CMP      r0,#0
        0x0000315c:    d10d        ..      BNE      0x317a ; main + 434
        0x0000315e:    2c04        .,      CMP      r4,#4
        0x00003160:    db05        ..      BLT      0x316e ; main + 422
        0x00003162:    2401        .$      MOVS     r4,#1
        0x00003164:    2001        .       MOVS     r0,#1
        0x00003166:    900c        ..      STR      r0,[sp,#0x30]
        0x00003168:    f7fffbe8    ....    BL       LCD_I2C_Clear ; 0x293c
        0x0000316c:    e005        ..      B        0x317a ; main + 434
        0x0000316e:    1c60        `.      ADDS     r0,r4,#1
        0x00003170:    b2c4        ..      UXTB     r4,r0
        0x00003172:    2001        .       MOVS     r0,#1
        0x00003174:    900c        ..      STR      r0,[sp,#0x30]
        0x00003176:    f7fffbe1    ....    BL       LCD_I2C_Clear ; 0x293c
        0x0000317a:    21e1        .!      MOVS     r1,#0xe1
        0x0000317c:    00c9        ..      LSLS     r1,r1,#3
        0x0000317e:    980b        ..      LDR      r0,[sp,#0x2c]
        0x00003180:    4288        .B      CMP      r0,r1
        0x00003182:    da13        ..      BGE      0x31ac ; main + 484
        0x00003184:    980b        ..      LDR      r0,[sp,#0x2c]
        0x00003186:    2800        .(      CMP      r0,#0
        0x00003188:    dd10        ..      BLE      0x31ac ; main + 484
        0x0000318a:    980c        ..      LDR      r0,[sp,#0x30]
        0x0000318c:    2800        .(      CMP      r0,#0
        0x0000318e:    d10d        ..      BNE      0x31ac ; main + 484
        0x00003190:    2c01        .,      CMP      r4,#1
        0x00003192:    dc05        ..      BGT      0x31a0 ; main + 472
        0x00003194:    2404        .$      MOVS     r4,#4
        0x00003196:    2001        .       MOVS     r0,#1
        0x00003198:    900c        ..      STR      r0,[sp,#0x30]
        0x0000319a:    f7fffbcf    ....    BL       LCD_I2C_Clear ; 0x293c
        0x0000319e:    e005        ..      B        0x31ac ; main + 484
        0x000031a0:    1e60        `.      SUBS     r0,r4,#1
        0x000031a2:    b2c4        ..      UXTB     r4,r0
        0x000031a4:    2001        .       MOVS     r0,#1
        0x000031a6:    900c        ..      STR      r0,[sp,#0x30]
        0x000031a8:    f7fffbc8    ....    BL       LCD_I2C_Clear ; 0x293c
        0x000031ac:    980c        ..      LDR      r0,[sp,#0x30]
        0x000031ae:    2800        .(      CMP      r0,#0
        0x000031b0:    d009        ..      BEQ      0x31c6 ; main + 510
        0x000031b2:    4964        dI      LDR      r1,[pc,#400] ; [0x3344] = 0xbb8
        0x000031b4:    980b        ..      LDR      r0,[sp,#0x2c]
        0x000031b6:    4288        .B      CMP      r0,r1
        0x000031b8:    da05        ..      BGE      0x31c6 ; main + 510
        0x000031ba:    4963        cI      LDR      r1,[pc,#396] ; [0x3348] = 0x8fc
        0x000031bc:    980b        ..      LDR      r0,[sp,#0x2c]
        0x000031be:    4288        .B      CMP      r0,r1
        0x000031c0:    dd01        ..      BLE      0x31c6 ; main + 510
        0x000031c2:    2000        .       MOVS     r0,#0
        0x000031c4:    900c        ..      STR      r0,[sp,#0x30]
        0x000031c6:    0023        #.      MOVS     r3,r4
        0x000031c8:    f7fffd52    ..R.    BL       __ARM_common_switch8 ; 0x2c70
    $d
        0x000031cc:    706a0406    ..jp    DCD    1885996038
        0x000031d0:    9f817e78    x~..    DCD    2676063864
    $t
        0x000031d4:    9806        ..      LDR      r0,[sp,#0x18]
        0x000031d6:    2800        .(      CMP      r0,#0
        0x000031d8:    d130        0.      BNE      0x323c ; main + 628
        0x000031da:    a25c        \.      ADR      r2,{pc}+0x172 ; 0x334c
        0x000031dc:    2100        .!      MOVS     r1,#0
        0x000031de:    4608        .F      MOV      r0,r1
        0x000031e0:    f7fffbfd    ....    BL       LCD_I2C_PrintAt ; 0x29de
        0x000031e4:    4856        VH      LDR      r0,[pc,#344] ; [0x3340] = 0xdac
        0x000031e6:    4287        .B      CMP      r7,r0
        0x000031e8:    dd06        ..      BLE      0x31f8 ; main + 560
        0x000031ea:    2d17        .-      CMP      r5,#0x17
        0x000031ec:    da04        ..      BGE      0x31f8 ; main + 560
        0x000031ee:    1c68        h.      ADDS     r0,r5,#1
        0x000031f0:    b2c5        ..      UXTB     r5,r0
        0x000031f2:    485a        ZH      LDR      r0,[pc,#360] ; [0x335c] = 0x13880
        0x000031f4:    f7fefdc4    ....    BL       DrvSYS_Delay ; 0x1d80
        0x000031f8:    20e1        .       MOVS     r0,#0xe1
        0x000031fa:    00c0        ..      LSLS     r0,r0,#3
        0x000031fc:    4287        .B      CMP      r7,r0
        0x000031fe:    da08        ..      BGE      0x3212 ; main + 586
        0x00003200:    2f00        ./      CMP      r7,#0
        0x00003202:    dd06        ..      BLE      0x3212 ; main + 586
        0x00003204:    2d00        .-      CMP      r5,#0
        0x00003206:    dd04        ..      BLE      0x3212 ; main + 586
        0x00003208:    1e68        h.      SUBS     r0,r5,#1
        0x0000320a:    b2c5        ..      UXTB     r5,r0
        0x0000320c:    4853        SH      LDR      r0,[pc,#332] ; [0x335c] = 0x13880
        0x0000320e:    f7fefdb7    ....    BL       DrvSYS_Delay ; 0x1d80
        0x00003212:    462a        *F      MOV      r2,r5
        0x00003214:    a152        R.      ADR      r1,{pc}+0x14c ; 0x3360
        0x00003216:    a80f        ..      ADD      r0,sp,#0x3c
        0x00003218:    f7fcffe4    ....    BL       __2sprintf ; 0x1e4
        0x0000321c:    aa0f        ..      ADD      r2,sp,#0x3c
        0x0000321e:    2100        .!      MOVS     r1,#0
        0x00003220:    2001        .       MOVS     r0,#1
        0x00003222:    f7fffbdc    ....    BL       LCD_I2C_PrintAt ; 0x29de
        0x00003226:    9804        ..      LDR      r0,[sp,#0x10]
        0x00003228:    2800        .(      CMP      r0,#0
        0x0000322a:    d038        8.      BEQ      0x329e ; main + 726
        0x0000322c:    2001        .       MOVS     r0,#1
        0x0000322e:    9006        ..      STR      r0,[sp,#0x18]
        0x00003230:    f7fffb84    ....    BL       LCD_I2C_Clear ; 0x293c
        0x00003234:    483a        :H      LDR      r0,[pc,#232] ; [0x3320] = 0x186a0
        0x00003236:    f7fefda3    ....    BL       DrvSYS_Delay ; 0x1d80
        0x0000323a:    e030        0.      B        0x329e ; main + 726
        0x0000323c:    a24b        K.      ADR      r2,{pc}+0x130 ; 0x336c
        0x0000323e:    2100        .!      MOVS     r1,#0
        0x00003240:    4608        .F      MOV      r0,r1
        0x00003242:    f7fffbcc    ....    BL       LCD_I2C_PrintAt ; 0x29de
        0x00003246:    483e        >H      LDR      r0,[pc,#248] ; [0x3340] = 0xdac
        0x00003248:    4287        .B      CMP      r7,r0
        0x0000324a:    dd06        ..      BLE      0x325a ; main + 658
        0x0000324c:    2e3b        ;.      CMP      r6,#0x3b
        0x0000324e:    da04        ..      BGE      0x325a ; main + 658
        0x00003250:    1c70        p.      ADDS     r0,r6,#1
        0x00003252:    b2c6        ..      UXTB     r6,r0
        0x00003254:    4832        2H      LDR      r0,[pc,#200] ; [0x3320] = 0x186a0
        0x00003256:    f7fefd93    ....    BL       DrvSYS_Delay ; 0x1d80
        0x0000325a:    20e1        .       MOVS     r0,#0xe1
        0x0000325c:    00c0        ..      LSLS     r0,r0,#3
        0x0000325e:    4287        .B      CMP      r7,r0
        0x00003260:    da08        ..      BGE      0x3274 ; main + 684
        0x00003262:    2f00        ./      CMP      r7,#0
        0x00003264:    dd06        ..      BLE      0x3274 ; main + 684
        0x00003266:    2e00        ..      CMP      r6,#0
        0x00003268:    dd04        ..      BLE      0x3274 ; main + 684
        0x0000326a:    1e70        p.      SUBS     r0,r6,#1
        0x0000326c:    b2c6        ..      UXTB     r6,r0
        0x0000326e:    482c        ,H      LDR      r0,[pc,#176] ; [0x3320] = 0x186a0
        0x00003270:    f7fefd86    ....    BL       DrvSYS_Delay ; 0x1d80
        0x00003274:    4632        2F      MOV      r2,r6
        0x00003276:    a142        B.      ADR      r1,{pc}+0x10a ; 0x3380
        0x00003278:    a80f        ..      ADD      r0,sp,#0x3c
        0x0000327a:    f7fcffb3    ....    BL       __2sprintf ; 0x1e4
        0x0000327e:    aa0f        ..      ADD      r2,sp,#0x3c
        0x00003280:    2100        .!      MOVS     r1,#0
        0x00003282:    2001        .       MOVS     r0,#1
        0x00003284:    f7fffbab    ....    BL       LCD_I2C_PrintAt ; 0x29de
        0x00003288:    9804        ..      LDR      r0,[sp,#0x10]
        0x0000328a:    2800        .(      CMP      r0,#0
        0x0000328c:    d007        ..      BEQ      0x329e ; main + 726
        0x0000328e:    2000        .       MOVS     r0,#0
        0x00003290:    9007        ..      STR      r0,[sp,#0x1c]
        0x00003292:    2401        .$      MOVS     r4,#1
        0x00003294:    f7fffb52    ..R.    BL       LCD_I2C_Clear ; 0x293c
        0x00003298:    4821        !H      LDR      r0,[pc,#132] ; [0x3320] = 0x186a0
        0x0000329a:    f7fefd71    ..q.    BL       DrvSYS_Delay ; 0x1d80
        0x0000329e:    e034        4.      B        0x330a ; main + 834
        0x000032a0:    4631        1F      MOV      r1,r6
        0x000032a2:    4628        (F      MOV      r0,r5
        0x000032a4:    9a07        ..      LDR      r2,[sp,#0x1c]
        0x000032a6:    f7fffe5d    ..].    BL       home ; 0x2f64
        0x000032aa:    e02e        ..      B        0x330a ; main + 834
        0x000032ac:    980e        ..      LDR      r0,[sp,#0x38]
        0x000032ae:    f7fdfd6b    ..k.    BL       __aeabi_f2iz ; 0xd88
        0x000032b2:    b200        ..      SXTH     r0,r0
        0x000032b4:    9003        ..      STR      r0,[sp,#0xc]
        0x000032b6:    f000f89b    ....    BL       tmp_chk ; 0x33f0
        0x000032ba:    e026        &.      B        0x330a ; main + 834
        0x000032bc:    4833        3H      LDR      r0,[pc,#204] ; [0x338c] = 0x20000034
        0x000032be:    8800        ..      LDRH     r0,[r0,#0]
        0x000032c0:    b200        ..      SXTH     r0,r0
        0x000032c2:    f7fffe2f    ../.    BL       heart_chk ; 0x2f24
        0x000032c6:    e020         .      B        0x330a ; main + 834
        0x000032c8:    f7fffd24    ..$.    BL       emergency_text ; 0x2d14
        0x000032cc:    e01d        ..      B        0x330a ; main + 834
        0x000032ce:    f7fffb35    ..5.    BL       LCD_I2C_Clear ; 0x293c
        0x000032d2:    a22f        /.      ADR      r2,{pc}+0xbe ; 0x3390
        0x000032d4:    2100        .!      MOVS     r1,#0
        0x000032d6:    4608        .F      MOV      r0,r1
        0x000032d8:    f7fffb81    ....    BL       LCD_I2C_PrintAt ; 0x29de
        0x000032dc:    a12c        ,.      ADR      r1,{pc}+0xb4 ; 0x3390
        0x000032de:    a80f        ..      ADD      r0,sp,#0x3c
        0x000032e0:    f7fcff80    ....    BL       __2sprintf ; 0x1e4
        0x000032e4:    220e        ."      MOVS     r2,#0xe
        0x000032e6:    a90f        ..      ADD      r1,sp,#0x3c
        0x000032e8:    2000        .       MOVS     r0,#0
        0x000032ea:    f7fff88d    ....    BL       DrvUART_Write ; 0x2408
        0x000032ee:    2000        .       MOVS     r0,#0
        0x000032f0:    9013        ..      STR      r0,[sp,#0x4c]
        0x000032f2:    e005        ..      B        0x3300 ; main + 824
        0x000032f4:    482a        *H      LDR      r0,[pc,#168] ; [0x33a0] = 0x51c98
        0x000032f6:    f7fefd43    ..C.    BL       DrvSYS_Delay ; 0x1d80
        0x000032fa:    9813        ..      LDR      r0,[sp,#0x4c]
        0x000032fc:    1c40        @.      ADDS     r0,r0,#1
        0x000032fe:    9013        ..      STR      r0,[sp,#0x4c]
        0x00003300:    9813        ..      LDR      r0,[sp,#0x4c]
        0x00003302:    2803        .(      CMP      r0,#3
        0x00003304:    dbf6        ..      BLT      0x32f4 ; main + 812
        0x00003306:    2401        .$      MOVS     r4,#1
        0x00003308:    bf00        ..      NOP      
        0x0000330a:    bf00        ..      NOP      
        0x0000330c:    4825        %H      LDR      r0,[pc,#148] ; [0x33a4] = 0x88b8
        0x0000330e:    f7fefd37    ..7.    BL       DrvSYS_Delay ; 0x1d80
        0x00003312:    e6a5        ..      B        0x3060 ; main + 152
    $d
        0x00003314:    50000100    ...P    DCD    1342177536
        0x00003318:    02dc6c00    .l..    DCD    48000000
        0x0000331c:    00002c1d    .,..    DCD    11293
        0x00003320:    000186a0    ....    DCD    100000
        0x00003324:    400e0000    ...@    DCD    1074659328
        0x00003328:    cccccccd    ....    DCD    3435973837
        0x0000332c:    4012cccc    ...@    DCD    1074973900
        0x00003330:    9999999a    ....    DCD    2576980378
        0x00003334:    3fd99999    ...?    DCD    1071225241
        0x00003338:    424c0000    ..LB    DCD    1112276992
        0x0000333c:    00002710    .'..    DCD    10000
        0x00003340:    00000dac    ....    DCD    3500
        0x00003344:    00000bb8    ....    DCD    3000
        0x00003348:    000008fc    ....    DCD    2300
        0x0000334c:    20746553    Set     DCD    544499027
        0x00003350:    72756f48    Hour    DCD    1920298824
        0x00003354:    2d302820     (0-    DCD    758130720
        0x00003358:    00293332    23).    DCD    2700082
        0x0000335c:    00013880    .8..    DCD    80000
        0x00003360:    72756f48    Hour    DCD    1920298824
        0x00003364:    3025203a    : %0    DCD    807739450
        0x00003368:    00006432    2d..    DCD    25650
        0x0000336c:    20746553    Set     DCD    544499027
        0x00003370:    756e694d    Minu    DCD    1970170189
        0x00003374:    28206574    te (    DCD    673211764
        0x00003378:    39352d30    0-59    DCD    959786288
        0x0000337c:    00000029    )...    DCD    41
        0x00003380:    3a6e694d    Min:    DCD    980314445
        0x00003384:    32302520     %02    DCD    842016032
        0x00003388:    00000064    d...    DCD    100
        0x0000338c:    20000034    4..     DCD    536870964
        0x00003390:    6c6c6146    Fall    DCD    1819042118
        0x00003394:    74654420     Det    DCD    1952793632
        0x00003398:    65746365    ecte    DCD    1702126437
        0x0000339c:    00002164    d!..    DCD    8548
        0x000033a0:    00051c98    ....    DCD    335000
        0x000033a4:    000088b8    ....    DCD    35000
    $t
    i.sqrt
    sqrt
        0x000033a8:    b5f8        ..      PUSH     {r3-r7,lr}
        0x000033aa:    4606        .F      MOV      r6,r0
        0x000033ac:    460c        .F      MOV      r4,r1
        0x000033ae:    f7fdfe33    ..3.    BL       _dsqrt ; 0x1018
        0x000033b2:    0005        ..      MOVS     r5,r0
        0x000033b4:    460f        .F      MOV      r7,r1
        0x000033b6:    d000        ..      BEQ      0x33ba ; sqrt + 18
        0x000033b8:    2001        .       MOVS     r0,#1
        0x000033ba:    4301        .C      ORRS     r1,r1,r0
        0x000033bc:    0049        I.      LSLS     r1,r1,#1
        0x000033be:    480b        .H      LDR      r0,[pc,#44] ; [0x33ec] = 0x7ff00000
        0x000033c0:    0849        I.      LSRS     r1,r1,#1
        0x000033c2:    1a41        A.      SUBS     r1,r0,r1
        0x000033c4:    0fc9        ..      LSRS     r1,r1,#31
        0x000033c6:    d00d        ..      BEQ      0x33e4 ; sqrt + 60
        0x000033c8:    2e00        ..      CMP      r6,#0
        0x000033ca:    d001        ..      BEQ      0x33d0 ; sqrt + 40
        0x000033cc:    2101        .!      MOVS     r1,#1
        0x000033ce:    e000        ..      B        0x33d2 ; sqrt + 42
        0x000033d0:    2100        .!      MOVS     r1,#0
        0x000033d2:    430c        .C      ORRS     r4,r4,r1
        0x000033d4:    0061        a.      LSLS     r1,r4,#1
        0x000033d6:    0849        I.      LSRS     r1,r1,#1
        0x000033d8:    1a40        @.      SUBS     r0,r0,r1
        0x000033da:    0fc0        ..      LSRS     r0,r0,#31
        0x000033dc:    d102        ..      BNE      0x33e4 ; sqrt + 60
        0x000033de:    2001        .       MOVS     r0,#1
        0x000033e0:    f7fdfd2c    ..,.    BL       __set_errno ; 0xe3c
        0x000033e4:    4628        (F      MOV      r0,r5
        0x000033e6:    4639        9F      MOV      r1,r7
        0x000033e8:    bdf8        ..      POP      {r3-r7,pc}
    $d
        0x000033ea:    0000        ..      DCW    0
        0x000033ec:    7ff00000    ....    DCD    2146435072
    $t
    i.tmp_chk
    tmp_chk
        0x000033f0:    b51f        ..      PUSH     {r0-r4,lr}
        0x000033f2:    4604        .F      MOV      r4,r0
        0x000033f4:    a209        ..      ADR      r2,{pc}+0x28 ; 0x341c
        0x000033f6:    ca07        ..      LDM      r2,{r0-r2}
        0x000033f8:    ab01        ..      ADD      r3,sp,#4
        0x000033fa:    c307        ..      STM      r3!,{r0-r2}
        0x000033fc:    4622        "F      MOV      r2,r4
        0x000033fe:    a10a        ..      ADR      r1,{pc}+0x2a ; 0x3428
        0x00003400:    4668        hF      MOV      r0,sp
        0x00003402:    f7fcfeef    ....    BL       __2sprintf ; 0x1e4
        0x00003406:    aa01        ..      ADD      r2,sp,#4
        0x00003408:    2102        .!      MOVS     r1,#2
        0x0000340a:    2000        .       MOVS     r0,#0
        0x0000340c:    f7fffae7    ....    BL       LCD_I2C_PrintAt ; 0x29de
        0x00003410:    466a        jF      MOV      r2,sp
        0x00003412:    2100        .!      MOVS     r1,#0
        0x00003414:    2001        .       MOVS     r0,#1
        0x00003416:    f7fffae2    ....    BL       LCD_I2C_PrintAt ; 0x29de
        0x0000341a:    bd1f        ..      POP      {r0-r4,pc}
    $d
        0x0000341c:    706d6554    Temp    DCD    1886217556
        0x00003420:    74617265    erat    DCD    1952543333
        0x00003424:    00657275    ure.    DCD    6648437
        0x00003428:    00006425    %d..    DCD    25637
    $t
    x$fpl$dleqf
    __aeabi_cdcmple
    _dcmple
        0x0000342c:    b570        p.      PUSH     {r4-r6,lr}
        0x0000342e:    2501        .%      MOVS     r5,#1
        0x00003430:    000c        ..      MOVS     r4,r1
        0x00003432:    052d        -.      LSLS     r5,r5,#20
        0x00003434:    431c        .C      ORRS     r4,r4,r3
        0x00003436:    d410        ..      BMI      0x345a ; __aeabi_cdcmple + 46
        0x00003438:    42ec        .B      CMN      r4,r5
        0x0000343a:    d406        ..      BMI      0x344a ; __aeabi_cdcmple + 30
        0x0000343c:    42ac        .B      CMP      r4,r5
        0x0000343e:    d40a        ..      BMI      0x3456 ; __aeabi_cdcmple + 42
        0x00003440:    4299        .B      CMP      r1,r3
        0x00003442:    d000        ..      BEQ      0x3446 ; __aeabi_cdcmple + 26
        0x00003444:    bd70        p.      POP      {r4-r6,pc}
        0x00003446:    4290        .B      CMP      r0,r2
        0x00003448:    bd70        p.      POP      {r4-r6,pc}
        0x0000344a:    42e9        .B      CMN      r1,r5
        0x0000344c:    d417        ..      BMI      0x347e ; __aeabi_cdcmple + 82
        0x0000344e:    42eb        .B      CMN      r3,r5
        0x00003450:    d415        ..      BMI      0x347e ; __aeabi_cdcmple + 82
        0x00003452:    4299        .B      CMP      r1,r3
        0x00003454:    bd70        p.      POP      {r4-r6,pc}
        0x00003456:    4289        .B      CMP      r1,r1
        0x00003458:    bd70        p.      POP      {r4-r6,pc}
        0x0000345a:    42ec        .B      CMN      r4,r5
        0x0000345c:    d506        ..      BPL      0x346c ; __aeabi_cdcmple + 64
        0x0000345e:    42ac        .B      CMP      r4,r5
        0x00003460:    d5f9        ..      BPL      0x3456 ; __aeabi_cdcmple + 42
        0x00003462:    428b        .B      CMP      r3,r1
        0x00003464:    d000        ..      BEQ      0x3468 ; __aeabi_cdcmple + 60
        0x00003466:    bd70        p.      POP      {r4-r6,pc}
        0x00003468:    4282        .B      CMP      r2,r0
        0x0000346a:    bd70        p.      POP      {r4-r6,pc}
        0x0000346c:    006d        m.      LSLS     r5,r5,#1
        0x0000346e:    004c        L.      LSLS     r4,r1,#1
        0x00003470:    42ec        .B      CMN      r4,r5
        0x00003472:    d204        ..      BCS      0x347e ; __aeabi_cdcmple + 82
        0x00003474:    005c        \.      LSLS     r4,r3,#1
        0x00003476:    42ec        .B      CMN      r4,r5
        0x00003478:    d201        ..      BCS      0x347e ; __aeabi_cdcmple + 82
        0x0000347a:    428b        .B      CMP      r3,r1
        0x0000347c:    bd70        p.      POP      {r4-r6,pc}
        0x0000347e:    4c03        .L      LDR      r4,[pc,#12] ; [0x348c] = 0x4160019
        0x00003480:    b430        0.      PUSH     {r4,r5}
        0x00003482:    f7fdfd81    ....    BL       __fpl_dcmp_InfNaN ; 0xf88
        0x00003486:    bc30        0.      POP      {r4,r5}
        0x00003488:    bd70        p.      POP      {r4-r6,pc}
        0x0000348a:    bf00        ..      NOP      
    $d
        0x0000348c:    04160019    ....    DCD    68550681
    $t
    x$fpl$drleqf
    __aeabi_cdrcmple
    _drcmple
        0x00003490:    b570        p.      PUSH     {r4-r6,lr}
        0x00003492:    2501        .%      MOVS     r5,#1
        0x00003494:    001c        ..      MOVS     r4,r3
        0x00003496:    052d        -.      LSLS     r5,r5,#20
        0x00003498:    430c        .C      ORRS     r4,r4,r1
        0x0000349a:    d410        ..      BMI      0x34be ; __aeabi_cdrcmple + 46
        0x0000349c:    42ec        .B      CMN      r4,r5
        0x0000349e:    d406        ..      BMI      0x34ae ; __aeabi_cdrcmple + 30
        0x000034a0:    42ac        .B      CMP      r4,r5
        0x000034a2:    d40a        ..      BMI      0x34ba ; __aeabi_cdrcmple + 42
        0x000034a4:    428b        .B      CMP      r3,r1
        0x000034a6:    d000        ..      BEQ      0x34aa ; __aeabi_cdrcmple + 26
        0x000034a8:    bd70        p.      POP      {r4-r6,pc}
        0x000034aa:    4282        .B      CMP      r2,r0
        0x000034ac:    bd70        p.      POP      {r4-r6,pc}
        0x000034ae:    42eb        .B      CMN      r3,r5
        0x000034b0:    d417        ..      BMI      0x34e2 ; __aeabi_cdrcmple + 82
        0x000034b2:    42e9        .B      CMN      r1,r5
        0x000034b4:    d415        ..      BMI      0x34e2 ; __aeabi_cdrcmple + 82
        0x000034b6:    428b        .B      CMP      r3,r1
        0x000034b8:    bd70        p.      POP      {r4-r6,pc}
        0x000034ba:    429b        .B      CMP      r3,r3
        0x000034bc:    bd70        p.      POP      {r4-r6,pc}
        0x000034be:    42ec        .B      CMN      r4,r5
        0x000034c0:    d506        ..      BPL      0x34d0 ; __aeabi_cdrcmple + 64
        0x000034c2:    42ac        .B      CMP      r4,r5
        0x000034c4:    d5f9        ..      BPL      0x34ba ; __aeabi_cdrcmple + 42
        0x000034c6:    4299        .B      CMP      r1,r3
        0x000034c8:    d000        ..      BEQ      0x34cc ; __aeabi_cdrcmple + 60
        0x000034ca:    bd70        p.      POP      {r4-r6,pc}
        0x000034cc:    4290        .B      CMP      r0,r2
        0x000034ce:    bd70        p.      POP      {r4-r6,pc}
        0x000034d0:    006d        m.      LSLS     r5,r5,#1
        0x000034d2:    005c        \.      LSLS     r4,r3,#1
        0x000034d4:    42ec        .B      CMN      r4,r5
        0x000034d6:    d204        ..      BCS      0x34e2 ; __aeabi_cdrcmple + 82
        0x000034d8:    004c        L.      LSLS     r4,r1,#1
        0x000034da:    42ec        .B      CMN      r4,r5
        0x000034dc:    d201        ..      BCS      0x34e2 ; __aeabi_cdrcmple + 82
        0x000034de:    4299        .B      CMP      r1,r3
        0x000034e0:    bd70        p.      POP      {r4-r6,pc}
        0x000034e2:    b40f        ..      PUSH     {r0-r3}
        0x000034e4:    4c03        .L      LDR      r4,[pc,#12] ; [0x34f4] = 0x4160019
        0x000034e6:    bc0c        ..      POP      {r2,r3}
        0x000034e8:    bc03        ..      POP      {r0,r1}
        0x000034ea:    b430        0.      PUSH     {r4,r5}
        0x000034ec:    f7fdfd4c    ..L.    BL       __fpl_dcmp_InfNaN ; 0xf88
        0x000034f0:    bc30        0.      POP      {r4,r5}
        0x000034f2:    bd70        p.      POP      {r4-r6,pc}
    $d
        0x000034f4:    04160019    ....    DCD    68550681
    $t
    x$fpl$fadd
    __aeabi_fadd
    _fadd
        0x000034f8:    b570        p.      PUSH     {r4-r6,lr}
        0x000034fa:    2501        .%      MOVS     r5,#1
        0x000034fc:    0004        ..      MOVS     r4,r0
        0x000034fe:    07ed        ..      LSLS     r5,r5,#31
        0x00003500:    404c        L@      EORS     r4,r4,r1
        0x00003502:    d420         .      BMI      0x3546 ; _fadd1 + 66
    _fadd1
        0x00003504:    1a44        D.      SUBS     r4,r0,r1
        0x00003506:    d201        ..      BCS      0x350c ; _fadd1 + 8
        0x00003508:    1b00        ..      SUBS     r0,r0,r4
        0x0000350a:    1909        ..      ADDS     r1,r1,r4
        0x0000350c:    0dc6        ..      LSRS     r6,r0,#23
        0x0000350e:    004b        K.      LSLS     r3,r1,#1
        0x00003510:    b2f2        ..      UXTB     r2,r6
        0x00003512:    2aff        .*      CMP      r2,#0xff
        0x00003514:    d029        ).      BEQ      0x356a ; _fadd1 + 102
        0x00003516:    0e1b        ..      LSRS     r3,r3,#24
        0x00003518:    d02c        ,.      BEQ      0x3574 ; _fadd1 + 112
        0x0000351a:    0200        ..      LSLS     r0,r0,#8
        0x0000351c:    020c        ..      LSLS     r4,r1,#8
        0x0000351e:    1ad3        ..      SUBS     r3,r2,r3
        0x00003520:    432c        ,C      ORRS     r4,r4,r5
        0x00003522:    40dc        .@      LSRS     r4,r4,r3
        0x00003524:    4328        (C      ORRS     r0,r0,r5
        0x00003526:    1905        ..      ADDS     r5,r0,r4
        0x00003528:    d210        ..      BCS      0x354c ; _fadd1 + 72
        0x0000352a:    0a28        (.      LSRS     r0,r5,#8
        0x0000352c:    d302        ..      BCC      0x3534 ; _fadd1 + 48
        0x0000352e:    1c40        @.      ADDS     r0,r0,#1
        0x00003530:    066d        m.      LSLS     r5,r5,#25
        0x00003532:    d011        ..      BEQ      0x3558 ; _fadd1 + 84
        0x00003534:    1e76        v.      SUBS     r6,r6,#1
        0x00003536:    05f6        ..      LSLS     r6,r6,#23
        0x00003538:    1980        ..      ADDS     r0,r0,r6
        0x0000353a:    2aff        .*      CMP      r2,#0xff
        0x0000353c:    da00        ..      BGE      0x3540 ; _fadd1 + 60
        0x0000353e:    bd70        p.      POP      {r4-r6,pc}
        0x00003540:    0dc0        ..      LSRS     r0,r0,#23
        0x00003542:    05c0        ..      LSLS     r0,r0,#23
        0x00003544:    bd70        p.      POP      {r4-r6,pc}
        0x00003546:    4069        i@      EORS     r1,r1,r5
        0x00003548:    f000f8a6    ....    BL       _fsub1 ; 0x3698
        0x0000354c:    2001        .       MOVS     r0,#1
        0x0000354e:    4305        .C      ORRS     r5,r5,r0
        0x00003550:    41c5        .A      RORS     r5,r5,r0
        0x00003552:    1c52        R.      ADDS     r2,r2,#1
        0x00003554:    1c76        v.      ADDS     r6,r6,#1
        0x00003556:    e7e8        ..      B        0x352a ; _fadd1 + 38
        0x00003558:    0864        d.      LSRS     r4,r4,#1
        0x0000355a:    409c        .@      LSLS     r4,r4,r3
        0x0000355c:    01c9        ..      LSLS     r1,r1,#7
        0x0000355e:    4061        a@      EORS     r1,r1,r4
        0x00003560:    0089        ..      LSLS     r1,r1,#2
        0x00003562:    d1e7        ..      BNE      0x3534 ; _fadd1 + 48
        0x00003564:    2401        .$      MOVS     r4,#1
        0x00003566:    43a0        .C      BICS     r0,r0,r4
        0x00003568:    e7e4        ..      B        0x3534 ; _fadd1 + 48
        0x0000356a:    0e1b        ..      LSRS     r3,r3,#24
        0x0000356c:    0244        D.      LSLS     r4,r0,#9
        0x0000356e:    d000        ..      BEQ      0x3572 ; _fadd1 + 110
        0x00003570:    4803        .H      LDR      r0,[pc,#12] ; [0x3580] = 0x7fc00000
        0x00003572:    bd70        p.      POP      {r4-r6,pc}
        0x00003574:    2a00        .*      CMP      r2,#0
        0x00003576:    d1fc        ..      BNE      0x3572 ; _fadd1 + 110
        0x00003578:    0fc0        ..      LSRS     r0,r0,#31
        0x0000357a:    07c0        ..      LSLS     r0,r0,#31
        0x0000357c:    bd70        p.      POP      {r4-r6,pc}
        0x0000357e:    bf00        ..      NOP      
    $d
        0x00003580:    7fc00000    ....    DCD    2143289344
    $t
    x$fpl$fmul
    __aeabi_fmul
    _fmul
        0x00003584:    b570        p.      PUSH     {r4-r6,lr}
        0x00003586:    0042        B.      LSLS     r2,r0,#1
        0x00003588:    4164        dA      ADCS     r4,r4,r4
        0x0000358a:    004b        K.      LSLS     r3,r1,#1
        0x0000358c:    415c        \A      ADCS     r4,r4,r3
        0x0000358e:    0e12        ..      LSRS     r2,r2,#24
        0x00003590:    d039        9.      BEQ      0x3606 ; __aeabi_fmul + 130
        0x00003592:    0e1b        ..      LSRS     r3,r3,#24
        0x00003594:    d038        8.      BEQ      0x3608 ; __aeabi_fmul + 132
        0x00003596:    2aff        .*      CMP      r2,#0xff
        0x00003598:    d03c        <.      BEQ      0x3614 ; __aeabi_fmul + 144
        0x0000359a:    2bff        .+      CMP      r3,#0xff
        0x0000359c:    d03a        :.      BEQ      0x3614 ; __aeabi_fmul + 144
        0x0000359e:    0240        @.      LSLS     r0,r0,#9
        0x000035a0:    0249        I.      LSLS     r1,r1,#9
        0x000035a2:    0a40        @.      LSRS     r0,r0,#9
        0x000035a4:    0a49        I.      LSRS     r1,r1,#9
        0x000035a6:    0006        ..      MOVS     r6,r0
        0x000035a8:    1845        E.      ADDS     r5,r0,r1
        0x000035aa:    434e        NC      MULS     r6,r1,r6
        0x000035ac:    0a00        ..      LSRS     r0,r0,#8
        0x000035ae:    0a09        ..      LSRS     r1,r1,#8
        0x000035b0:    18d2        ..      ADDS     r2,r2,r3
        0x000035b2:    4348        HC      MULS     r0,r1,r0
        0x000035b4:    01ed        ..      LSLS     r5,r5,#7
        0x000035b6:    3a7f        .:      SUBS     r2,r2,#0x7f
        0x000035b8:    0401        ..      LSLS     r1,r0,#16
        0x000035ba:    1a73        s.      SUBS     r3,r6,r1
        0x000035bc:    1940        @.      ADDS     r0,r0,r5
        0x000035be:    0c19        ..      LSRS     r1,r3,#16
        0x000035c0:    1843        C.      ADDS     r3,r0,r1
        0x000035c2:    0f99        ..      LSRS     r1,r3,#30
        0x000035c4:    d004        ..      BEQ      0x35d0 ; __aeabi_fmul + 76
        0x000035c6:    2101        .!      MOVS     r1,#1
        0x000035c8:    085b        [.      LSRS     r3,r3,#1
        0x000035ca:    0749        I.      LSLS     r1,r1,#29
        0x000035cc:    1a5b        [.      SUBS     r3,r3,r1
        0x000035ce:    1c52        R.      ADDS     r2,r2,#1
        0x000035d0:    09d8        ..      LSRS     r0,r3,#7
        0x000035d2:    d304        ..      BCC      0x35de ; __aeabi_fmul + 90
        0x000035d4:    1c40        @.      ADDS     r0,r0,#1
        0x000035d6:    03f5        ..      LSLS     r5,r6,#15
        0x000035d8:    d101        ..      BNE      0x35de ; __aeabi_fmul + 90
        0x000035da:    069d        ..      LSLS     r5,r3,#26
        0x000035dc:    d007        ..      BEQ      0x35ee ; __aeabi_fmul + 106
        0x000035de:    2aff        .*      CMP      r2,#0xff
        0x000035e0:    d208        ..      BCS      0x35f4 ; __aeabi_fmul + 112
        0x000035e2:    05d5        ..      LSLS     r5,r2,#23
        0x000035e4:    d006        ..      BEQ      0x35f4 ; __aeabi_fmul + 112
        0x000035e6:    07e4        ..      LSLS     r4,r4,#31
        0x000035e8:    4320         C      ORRS     r0,r0,r4
        0x000035ea:    1940        @.      ADDS     r0,r0,r5
        0x000035ec:    bd70        p.      POP      {r4-r6,pc}
        0x000035ee:    2501        .%      MOVS     r5,#1
        0x000035f0:    43a8        .C      BICS     r0,r0,r5
        0x000035f2:    e7f4        ..      B        0x35de ; __aeabi_fmul + 90
        0x000035f4:    2a00        .*      CMP      r2,#0
        0x000035f6:    dc01        ..      BGT      0x35fc ; __aeabi_fmul + 120
        0x000035f8:    07e0        ..      LSLS     r0,r4,#31
        0x000035fa:    bd70        p.      POP      {r4-r6,pc}
        0x000035fc:    0224        $.      LSLS     r4,r4,#8
        0x000035fe:    20ff        .       MOVS     r0,#0xff
        0x00003600:    4320         C      ORRS     r0,r0,r4
        0x00003602:    05c0        ..      LSLS     r0,r0,#23
        0x00003604:    bd70        p.      POP      {r4-r6,pc}
        0x00003606:    0e1b        ..      LSRS     r3,r3,#24
        0x00003608:    2aff        .*      CMP      r2,#0xff
        0x0000360a:    d003        ..      BEQ      0x3614 ; __aeabi_fmul + 144
        0x0000360c:    2bff        .+      CMP      r3,#0xff
        0x0000360e:    d001        ..      BEQ      0x3614 ; __aeabi_fmul + 144
        0x00003610:    07e0        ..      LSLS     r0,r4,#31
        0x00003612:    bd70        p.      POP      {r4-r6,pc}
        0x00003614:    26ff        .&      MOVS     r6,#0xff
        0x00003616:    0045        E.      LSLS     r5,r0,#1
        0x00003618:    0636        6.      LSLS     r6,r6,#24
        0x0000361a:    42b5        .B      CMP      r5,r6
        0x0000361c:    d806        ..      BHI      0x362c ; __aeabi_fmul + 168
        0x0000361e:    004d        M.      LSLS     r5,r1,#1
        0x00003620:    42b5        .B      CMP      r5,r6
        0x00003622:    d803        ..      BHI      0x362c ; __aeabi_fmul + 168
        0x00003624:    18d2        ..      ADDS     r2,r2,r3
        0x00003626:    2aff        .*      CMP      r2,#0xff
        0x00003628:    d000        ..      BEQ      0x362c ; __aeabi_fmul + 168
        0x0000362a:    e7e7        ..      B        0x35fc ; __aeabi_fmul + 120
        0x0000362c:    4800        .H      LDR      r0,[pc,#0] ; [0x3630] = 0x7fc00000
        0x0000362e:    bd70        p.      POP      {r4-r6,pc}
    $d
        0x00003630:    7fc00000    ....    DCD    2143289344
    $t
    x$fpl$frleqf
    __aeabi_cfrcmple
    _frcmple
        0x00003634:    2301        .#      MOVS     r3,#1
        0x00003636:    000a        ..      MOVS     r2,r1
        0x00003638:    05db        ..      LSLS     r3,r3,#23
        0x0000363a:    4302        .C      ORRS     r2,r2,r0
        0x0000363c:    d40d        ..      BMI      0x365a ; __aeabi_cfrcmple + 38
        0x0000363e:    42da        .B      CMN      r2,r3
        0x00003640:    d403        ..      BMI      0x364a ; __aeabi_cfrcmple + 22
        0x00003642:    429a        .B      CMP      r2,r3
        0x00003644:    d407        ..      BMI      0x3656 ; __aeabi_cfrcmple + 34
        0x00003646:    4281        .B      CMP      r1,r0
        0x00003648:    4770        pG      BX       lr
        0x0000364a:    42d9        .B      CMN      r1,r3
        0x0000364c:    d414        ..      BMI      0x3678 ; __aeabi_cfrcmple + 68
        0x0000364e:    42d8        .B      CMN      r0,r3
        0x00003650:    d412        ..      BMI      0x3678 ; __aeabi_cfrcmple + 68
        0x00003652:    4281        .B      CMP      r1,r0
        0x00003654:    4770        pG      BX       lr
        0x00003656:    4289        .B      CMP      r1,r1
        0x00003658:    4770        pG      BX       lr
        0x0000365a:    42da        .B      CMN      r2,r3
        0x0000365c:    d503        ..      BPL      0x3666 ; __aeabi_cfrcmple + 50
        0x0000365e:    429a        .B      CMP      r2,r3
        0x00003660:    d5f9        ..      BPL      0x3656 ; __aeabi_cfrcmple + 34
        0x00003662:    4288        .B      CMP      r0,r1
        0x00003664:    4770        pG      BX       lr
        0x00003666:    005b        [.      LSLS     r3,r3,#1
        0x00003668:    004a        J.      LSLS     r2,r1,#1
        0x0000366a:    42da        .B      CMN      r2,r3
        0x0000366c:    d204        ..      BCS      0x3678 ; __aeabi_cfrcmple + 68
        0x0000366e:    0042        B.      LSLS     r2,r0,#1
        0x00003670:    42da        .B      CMN      r2,r3
        0x00003672:    d201        ..      BCS      0x3678 ; __aeabi_cfrcmple + 68
        0x00003674:    4288        .B      CMP      r0,r1
        0x00003676:    4770        pG      BX       lr
        0x00003678:    4048        H@      EORS     r0,r0,r1
        0x0000367a:    4041        A@      EORS     r1,r1,r0
        0x0000367c:    b510        ..      PUSH     {r4,lr}
        0x0000367e:    4a02        .J      LDR      r2,[pc,#8] ; [0x3688] = 0x4160009
        0x00003680:    4048        H@      EORS     r0,r0,r1
        0x00003682:    f7fdfd4b    ..K.    BL       __fpl_fcmp_InfNaN ; 0x111c
        0x00003686:    bd10        ..      POP      {r4,pc}
    $d
        0x00003688:    04160009    ....    DCD    68550665
    $t
    x$fpl$fsub
    __aeabi_fsub
    _fsub
        0x0000368c:    b570        p.      PUSH     {r4-r6,lr}
        0x0000368e:    2501        .%      MOVS     r5,#1
        0x00003690:    0004        ..      MOVS     r4,r0
        0x00003692:    07ed        ..      LSLS     r5,r5,#31
        0x00003694:    404c        L@      EORS     r4,r4,r1
        0x00003696:    d422        ".      BMI      0x36de ; _fsub1 + 70
    _fsub1
        0x00003698:    1a44        D.      SUBS     r4,r0,r1
        0x0000369a:    d202        ..      BCS      0x36a2 ; _fsub1 + 10
        0x0000369c:    406c        l@      EORS     r4,r4,r5
        0x0000369e:    1b00        ..      SUBS     r0,r0,r4
        0x000036a0:    1909        ..      ADDS     r1,r1,r4
        0x000036a2:    0dc6        ..      LSRS     r6,r0,#23
        0x000036a4:    004b        K.      LSLS     r3,r1,#1
        0x000036a6:    b2f2        ..      UXTB     r2,r6
        0x000036a8:    2aff        .*      CMP      r2,#0xff
        0x000036aa:    d04b        K.      BEQ      0x3744 ; _fsub1 + 172
        0x000036ac:    0e1b        ..      LSRS     r3,r3,#24
        0x000036ae:    d050        P.      BEQ      0x3752 ; _fsub1 + 186
        0x000036b0:    0200        ..      LSLS     r0,r0,#8
        0x000036b2:    020c        ..      LSLS     r4,r1,#8
        0x000036b4:    1ad3        ..      SUBS     r3,r2,r3
        0x000036b6:    432c        ,C      ORRS     r4,r4,r5
        0x000036b8:    40dc        .@      LSRS     r4,r4,r3
        0x000036ba:    43a8        .C      BICS     r0,r0,r5
        0x000036bc:    1b05        ..      SUBS     r5,r0,r4
        0x000036be:    d505        ..      BPL      0x36cc ; _fsub1 + 52
        0x000036c0:    00ad        ..      LSLS     r5,r5,#2
        0x000036c2:    d319        ..      BCC      0x36f8 ; _fsub1 + 96
        0x000036c4:    086d        m.      LSRS     r5,r5,#1
        0x000036c6:    1e76        v.      SUBS     r6,r6,#1
        0x000036c8:    1e52        R.      SUBS     r2,r2,#1
        0x000036ca:    d037        7.      BEQ      0x373c ; _fsub1 + 164
        0x000036cc:    05f6        ..      LSLS     r6,r6,#23
        0x000036ce:    0a28        (.      LSRS     r0,r5,#8
        0x000036d0:    d201        ..      BCS      0x36d6 ; _fsub1 + 62
        0x000036d2:    1980        ..      ADDS     r0,r0,r6
        0x000036d4:    bd70        p.      POP      {r4-r6,pc}
        0x000036d6:    4170        pA      ADCS     r0,r0,r6
        0x000036d8:    066d        m.      LSLS     r5,r5,#25
        0x000036da:    d003        ..      BEQ      0x36e4 ; _fsub1 + 76
        0x000036dc:    bd70        p.      POP      {r4-r6,pc}
        0x000036de:    4069        i@      EORS     r1,r1,r5
        0x000036e0:    f7ffff10    ....    BL       _fadd1 ; 0x3504
        0x000036e4:    409c        .@      LSLS     r4,r4,r3
        0x000036e6:    0209        ..      LSLS     r1,r1,#8
        0x000036e8:    4061        a@      EORS     r1,r1,r4
        0x000036ea:    0049        I.      LSLS     r1,r1,#1
        0x000036ec:    d001        ..      BEQ      0x36f2 ; _fsub1 + 90
        0x000036ee:    1e40        @.      SUBS     r0,r0,#1
        0x000036f0:    bd70        p.      POP      {r4-r6,pc}
        0x000036f2:    2401        .$      MOVS     r4,#1
        0x000036f4:    43a0        .C      BICS     r0,r0,r4
        0x000036f6:    bd70        p.      POP      {r4-r6,pc}
        0x000036f8:    086d        m.      LSRS     r5,r5,#1
        0x000036fa:    d01d        ..      BEQ      0x3738 ; _fsub1 + 160
        0x000036fc:    2001        .       MOVS     r0,#1
        0x000036fe:    0c2b        +.      LSRS     r3,r5,#16
        0x00003700:    d101        ..      BNE      0x3706 ; _fsub1 + 110
        0x00003702:    042d        -.      LSLS     r5,r5,#16
        0x00003704:    3010        .0      ADDS     r0,r0,#0x10
        0x00003706:    0e2b        +.      LSRS     r3,r5,#24
        0x00003708:    d101        ..      BNE      0x370e ; _fsub1 + 118
        0x0000370a:    022d        -.      LSLS     r5,r5,#8
        0x0000370c:    3008        .0      ADDS     r0,r0,#8
        0x0000370e:    0f2b        +.      LSRS     r3,r5,#28
        0x00003710:    d101        ..      BNE      0x3716 ; _fsub1 + 126
        0x00003712:    012d        -.      LSLS     r5,r5,#4
        0x00003714:    1d00        ..      ADDS     r0,r0,#4
        0x00003716:    0fab        ..      LSRS     r3,r5,#30
        0x00003718:    d101        ..      BNE      0x371e ; _fsub1 + 134
        0x0000371a:    00ad        ..      LSLS     r5,r5,#2
        0x0000371c:    1c80        ..      ADDS     r0,r0,#2
        0x0000371e:    0feb        ..      LSRS     r3,r5,#31
        0x00003720:    d101        ..      BNE      0x3726 ; _fsub1 + 142
        0x00003722:    006d        m.      LSLS     r5,r5,#1
        0x00003724:    1c40        @.      ADDS     r0,r0,#1
        0x00003726:    006d        m.      LSLS     r5,r5,#1
        0x00003728:    1a36        6.      SUBS     r6,r6,r0
        0x0000372a:    1a12        ..      SUBS     r2,r2,r0
        0x0000372c:    0a68        h.      LSRS     r0,r5,#9
        0x0000372e:    05f5        ..      LSLS     r5,r6,#23
        0x00003730:    1940        @.      ADDS     r0,r0,r5
        0x00003732:    2a01        .*      CMP      r2,#1
        0x00003734:    db02        ..      BLT      0x373c ; _fsub1 + 164
        0x00003736:    bd70        p.      POP      {r4-r6,pc}
        0x00003738:    2000        .       MOVS     r0,#0
        0x0000373a:    bd70        p.      POP      {r4-r6,pc}
        0x0000373c:    36c0        .6      ADDS     r6,r6,#0xc0
        0x0000373e:    0a30        0.      LSRS     r0,r6,#8
        0x00003740:    07c0        ..      LSLS     r0,r0,#31
        0x00003742:    bd70        p.      POP      {r4-r6,pc}
        0x00003744:    0e1b        ..      LSRS     r3,r3,#24
        0x00003746:    0244        D.      LSLS     r4,r0,#9
        0x00003748:    d101        ..      BNE      0x374e ; _fsub1 + 182
        0x0000374a:    2bff        .+      CMP      r3,#0xff
        0x0000374c:    d100        ..      BNE      0x3750 ; _fsub1 + 184
        0x0000374e:    4802        .H      LDR      r0,[pc,#8] ; [0x3758] = 0x7fc00000
        0x00003750:    bd70        p.      POP      {r4-r6,pc}
        0x00003752:    2a00        .*      CMP      r2,#0
        0x00003754:    d0f0        ..      BEQ      0x3738 ; _fsub1 + 160
        0x00003756:    bd70        p.      POP      {r4-r6,pc}
    $d
        0x00003758:    7fc00000    ....    DCD    2143289344
    $d.realdata
    .constdata
    x$fpl$usenofp
    __I$use$fp
        0x0000375c:    73206f54    To s    DCD    1931505492
        0x00003760:    20646e65    end     DCD    543452773
        0x00003764:    00534f53    SOS.    DCD    5459795
        0x00003768:    00000000    ....    DCD    0
    .constdata
        0x0000376c:    00000001    ....    DCD    1
        0x00003770:    00000002    ....    DCD    2
        0x00003774:    00000002    ....    DCD    2
        0x00003778:    00000004    ....    DCD    4
    .constdata
    maptable
        0x0000377c:    08000004    ....    DCD    134217732
        0x00003780:    00000000    ....    DCD    0
        0x00003784:    02000000    ....    DCD    33554432
        0x00003788:    00000100    ....    DCD    256
        0x0000378c:    10          .       DCB    16
    .constdata
    fdiv_tab
        0x0000378d:    818283      ...     DCB    129,130,131
        0x00003790:    87868584    ....    DCD    2273740164
        0x00003794:    8c8b8988    ....    DCD    2357954952
        0x00003798:    918f8e8d    ....    DCD    2442104461
        0x0000379c:    96959392    ....    DCD    2526385042
        0x000037a0:    9c9a9997    ....    DCD    2627377559
        0x000037a4:    a2a09f9d    ....    DCD    2728435613
        0x000037a8:    a8a7a5a3    ....    DCD    2829559203
        0x000037ac:    b0aeacaa    ....    DCD    2964237482
        0x000037b0:    b7b5b3b2    ....    DCD    3082138546
        0x000037b4:    c0bebcb9    ....    DCD    3233725625
        0x000037b8:    c9c7c5c2    ....    DCD    3385312706
        0x000037bc:    d4d1cecc    ....    DCD    3570519756
        0x000037c0:    dfdcd9d7    ....    DCD    3755792855
        0x000037c4:    ece9e6e2    ....    DCD    3974751970
        0x000037c8:    faf7f3f0    ....    DCD    4210553840
        0x000037cc:    000000fe    ....    DCD    254
    Region$$Table$$Base
        0x000037d0:    000037f0    .7..    DCD    14320
        0x000037d4:    20000000    ...     DCD    536870912
        0x000037d8:    00000070    p...    DCD    112
        0x000037dc:    00000104    ....    DCD    260
        0x000037e0:    00003860    `8..    DCD    14432
        0x000037e4:    20000070    p..     DCD    536871024
        0x000037e8:    00000480    ....    DCD    1152
        0x000037ec:    00000120     ...    DCD    288
    Region$$Table$$Limit

** Section #2 'ER_RW' (SHT_PROGBITS) [SHF_ALLOC + SHF_WRITE]
    Size   : 112 bytes (alignment 4)
    Address: 0x20000000


** Section #3 'ER_ZI' (SHT_NOBITS) [SHF_ALLOC + SHF_WRITE]
    Size   : 1152 bytes (alignment 8)
    Address: 0x20000070


** Section #4 '.debug_abbrev' (SHT_PROGBITS)
    Size   : 1476 bytes


** Section #5 '.debug_frame' (SHT_PROGBITS)
    Size   : 3464 bytes


** Section #6 '.debug_info' (SHT_PROGBITS)
    Size   : 77996 bytes


** Section #7 '.debug_line' (SHT_PROGBITS)
    Size   : 11928 bytes


** Section #8 '.debug_loc' (SHT_PROGBITS)
    Size   : 4092 bytes


** Section #9 '.debug_macinfo' (SHT_PROGBITS)
    Size   : 89344 bytes


** Section #10 '.debug_pubnames' (SHT_PROGBITS)
    Size   : 2182 bytes


** Section #11 '.symtab' (SHT_SYMTAB)
    Size   : 11520 bytes (alignment 4)
    String table #12 '.strtab'
    Last local symbol no. 488


** Section #12 '.strtab' (SHT_STRTAB)
    Size   : 8276 bytes


** Section #13 '.note' (SHT_NOTE)
    Size   : 28 bytes (alignment 4)


** Section #14 '.comment' (SHT_PROGBITS)
    Size   : 5492 bytes


** Section #15 '.shstrtab' (SHT_STRTAB)
    Size   : 156 bytes


